	.file	"computations.cpp"
	.intel_syntax noprefix
	.text
	.section	.text._ZSt23__is_constant_evaluatedv,"axG",@progbits,_ZSt23__is_constant_evaluatedv,comdat
	.weak	_ZSt23__is_constant_evaluatedv
	.type	_ZSt23__is_constant_evaluatedv, @function
_ZSt23__is_constant_evaluatedv:
.LFB1:
	.cfi_startproc
	endbr64
	push	rbp
	.cfi_def_cfa_offset 16
	.cfi_offset 6, -16
	mov	rbp, rsp
	.cfi_def_cfa_register 6
	mov	eax, 0
	pop	rbp
	.cfi_def_cfa 7, 8
	ret
	.cfi_endproc
.LFE1:
	.size	_ZSt23__is_constant_evaluatedv, .-_ZSt23__is_constant_evaluatedv
	.section	.text._ZSt17__size_to_integerm,"axG",@progbits,_ZSt17__size_to_integerm,comdat
	.weak	_ZSt17__size_to_integerm
	.type	_ZSt17__size_to_integerm, @function
_ZSt17__size_to_integerm:
.LFB314:
	.cfi_startproc
	endbr64
	push	rbp
	.cfi_def_cfa_offset 16
	.cfi_offset 6, -16
	mov	rbp, rsp
	.cfi_def_cfa_register 6
	mov	QWORD PTR -8[rbp], rdi
	mov	rax, QWORD PTR -8[rbp]
	pop	rbp
	.cfi_def_cfa 7, 8
	ret
	.cfi_endproc
.LFE314:
	.size	_ZSt17__size_to_integerm, .-_ZSt17__size_to_integerm
	.section	.text._ZnwmPv,"axG",@progbits,_ZnwmPv,comdat
	.weak	_ZnwmPv
	.type	_ZnwmPv, @function
_ZnwmPv:
.LFB382:
	.cfi_startproc
	endbr64
	push	rbp
	.cfi_def_cfa_offset 16
	.cfi_offset 6, -16
	mov	rbp, rsp
	.cfi_def_cfa_register 6
	mov	QWORD PTR -8[rbp], rdi
	mov	QWORD PTR -16[rbp], rsi
	mov	rax, QWORD PTR -16[rbp]
	pop	rbp
	.cfi_def_cfa 7, 8
	ret
	.cfi_endproc
.LFE382:
	.size	_ZnwmPv, .-_ZnwmPv
	.section	.text._ZdlPvS_,"axG",@progbits,_ZdlPvS_,comdat
	.weak	_ZdlPvS_
	.type	_ZdlPvS_, @function
_ZdlPvS_:
.LFB384:
	.cfi_startproc
	endbr64
	push	rbp
	.cfi_def_cfa_offset 16
	.cfi_offset 6, -16
	mov	rbp, rsp
	.cfi_def_cfa_register 6
	mov	QWORD PTR -8[rbp], rdi
	mov	QWORD PTR -16[rbp], rsi
	nop
	pop	rbp
	.cfi_def_cfa 7, 8
	ret
	.cfi_endproc
.LFE384:
	.size	_ZdlPvS_, .-_ZdlPvS_
	.section	.text._ZNSt15_Rb_tree_headerC2Ev,"axG",@progbits,_ZNSt15_Rb_tree_headerC5Ev,comdat
	.align 2
	.weak	_ZNSt15_Rb_tree_headerC2Ev
	.type	_ZNSt15_Rb_tree_headerC2Ev, @function
_ZNSt15_Rb_tree_headerC2Ev:
.LFB628:
	.cfi_startproc
	endbr64
	push	rbp
	.cfi_def_cfa_offset 16
	.cfi_offset 6, -16
	mov	rbp, rsp
	.cfi_def_cfa_register 6
	sub	rsp, 16
	mov	QWORD PTR -8[rbp], rdi
	mov	rax, QWORD PTR -8[rbp]
	mov	DWORD PTR [rax], 0
	mov	rax, QWORD PTR -8[rbp]
	mov	rdi, rax
	call	_ZNSt15_Rb_tree_header8_M_resetEv
	nop
	leave
	.cfi_def_cfa 7, 8
	ret
	.cfi_endproc
.LFE628:
	.size	_ZNSt15_Rb_tree_headerC2Ev, .-_ZNSt15_Rb_tree_headerC2Ev
	.weak	_ZNSt15_Rb_tree_headerC1Ev
	.set	_ZNSt15_Rb_tree_headerC1Ev,_ZNSt15_Rb_tree_headerC2Ev
	.section	.text._ZNSt15_Rb_tree_header8_M_resetEv,"axG",@progbits,_ZNSt15_Rb_tree_header8_M_resetEv,comdat
	.align 2
	.weak	_ZNSt15_Rb_tree_header8_M_resetEv
	.type	_ZNSt15_Rb_tree_header8_M_resetEv, @function
_ZNSt15_Rb_tree_header8_M_resetEv:
.LFB634:
	.cfi_startproc
	endbr64
	push	rbp
	.cfi_def_cfa_offset 16
	.cfi_offset 6, -16
	mov	rbp, rsp
	.cfi_def_cfa_register 6
	mov	QWORD PTR -8[rbp], rdi
	mov	rax, QWORD PTR -8[rbp]
	mov	QWORD PTR 8[rax], 0
	mov	rdx, QWORD PTR -8[rbp]
	mov	rax, QWORD PTR -8[rbp]
	mov	QWORD PTR 16[rax], rdx
	mov	rdx, QWORD PTR -8[rbp]
	mov	rax, QWORD PTR -8[rbp]
	mov	QWORD PTR 24[rax], rdx
	mov	rax, QWORD PTR -8[rbp]
	mov	QWORD PTR 32[rax], 0
	nop
	pop	rbp
	.cfi_def_cfa 7, 8
	ret
	.cfi_endproc
.LFE634:
	.size	_ZNSt15_Rb_tree_header8_M_resetEv, .-_ZNSt15_Rb_tree_header8_M_resetEv
	.section	.text._ZNSt11char_traitsIcE6lengthEPKc,"axG",@progbits,_ZNSt11char_traitsIcE6lengthEPKc,comdat
	.weak	_ZNSt11char_traitsIcE6lengthEPKc
	.type	_ZNSt11char_traitsIcE6lengthEPKc, @function
_ZNSt11char_traitsIcE6lengthEPKc:
.LFB1237:
	.cfi_startproc
	endbr64
	push	rbp
	.cfi_def_cfa_offset 16
	.cfi_offset 6, -16
	mov	rbp, rsp
	.cfi_def_cfa_register 6
	sub	rsp, 16
	mov	QWORD PTR -8[rbp], rdi
	call	_ZSt23__is_constant_evaluatedv
	test	al, al
	je	.L11
	mov	rax, QWORD PTR -8[rbp]
	mov	rdi, rax
	call	_ZN9__gnu_cxx11char_traitsIcE6lengthEPKc
	jmp	.L12
.L11:
	mov	rax, QWORD PTR -8[rbp]
	mov	rdi, rax
	call	strlen@PLT
	nop
.L12:
	leave
	.cfi_def_cfa 7, 8
	ret
	.cfi_endproc
.LFE1237:
	.size	_ZNSt11char_traitsIcE6lengthEPKc, .-_ZNSt11char_traitsIcE6lengthEPKc
	.section	.text._ZNSt12_Vector_baseIhSaIhEE12_Vector_implD2Ev,"axG",@progbits,_ZNSt12_Vector_baseIhSaIhEE12_Vector_implD5Ev,comdat
	.align 2
	.weak	_ZNSt12_Vector_baseIhSaIhEE12_Vector_implD2Ev
	.type	_ZNSt12_Vector_baseIhSaIhEE12_Vector_implD2Ev, @function
_ZNSt12_Vector_baseIhSaIhEE12_Vector_implD2Ev:
.LFB7275:
	.cfi_startproc
	endbr64
	push	rbp
	.cfi_def_cfa_offset 16
	.cfi_offset 6, -16
	mov	rbp, rsp
	.cfi_def_cfa_register 6
	sub	rsp, 16
	mov	QWORD PTR -8[rbp], rdi
	mov	rax, QWORD PTR -8[rbp]
	mov	rdi, rax
	call	_ZNSaIhED2Ev
	nop
	leave
	.cfi_def_cfa 7, 8
	ret
	.cfi_endproc
.LFE7275:
	.size	_ZNSt12_Vector_baseIhSaIhEE12_Vector_implD2Ev, .-_ZNSt12_Vector_baseIhSaIhEE12_Vector_implD2Ev
	.weak	_ZNSt12_Vector_baseIhSaIhEE12_Vector_implD1Ev
	.set	_ZNSt12_Vector_baseIhSaIhEE12_Vector_implD1Ev,_ZNSt12_Vector_baseIhSaIhEE12_Vector_implD2Ev
	.section	.text._ZNSt12_Vector_baseIhSaIhEEC2Ev,"axG",@progbits,_ZNSt12_Vector_baseIhSaIhEEC5Ev,comdat
	.align 2
	.weak	_ZNSt12_Vector_baseIhSaIhEEC2Ev
	.type	_ZNSt12_Vector_baseIhSaIhEEC2Ev, @function
_ZNSt12_Vector_baseIhSaIhEEC2Ev:
.LFB7277:
	.cfi_startproc
	endbr64
	push	rbp
	.cfi_def_cfa_offset 16
	.cfi_offset 6, -16
	mov	rbp, rsp
	.cfi_def_cfa_register 6
	sub	rsp, 16
	mov	QWORD PTR -8[rbp], rdi
	mov	rax, QWORD PTR -8[rbp]
	mov	rdi, rax
	call	_ZNSt12_Vector_baseIhSaIhEE12_Vector_implC1Ev
	nop
	leave
	.cfi_def_cfa 7, 8
	ret
	.cfi_endproc
.LFE7277:
	.size	_ZNSt12_Vector_baseIhSaIhEEC2Ev, .-_ZNSt12_Vector_baseIhSaIhEEC2Ev
	.weak	_ZNSt12_Vector_baseIhSaIhEEC1Ev
	.set	_ZNSt12_Vector_baseIhSaIhEEC1Ev,_ZNSt12_Vector_baseIhSaIhEEC2Ev
	.section	.text._ZNSt6vectorIhSaIhEEC2Ev,"axG",@progbits,_ZNSt6vectorIhSaIhEEC5Ev,comdat
	.align 2
	.weak	_ZNSt6vectorIhSaIhEEC2Ev
	.type	_ZNSt6vectorIhSaIhEEC2Ev, @function
_ZNSt6vectorIhSaIhEEC2Ev:
.LFB7279:
	.cfi_startproc
	endbr64
	push	rbp
	.cfi_def_cfa_offset 16
	.cfi_offset 6, -16
	mov	rbp, rsp
	.cfi_def_cfa_register 6
	sub	rsp, 16
	mov	QWORD PTR -8[rbp], rdi
	mov	rax, QWORD PTR -8[rbp]
	mov	rdi, rax
	call	_ZNSt12_Vector_baseIhSaIhEEC2Ev
	nop
	leave
	.cfi_def_cfa 7, 8
	ret
	.cfi_endproc
.LFE7279:
	.size	_ZNSt6vectorIhSaIhEEC2Ev, .-_ZNSt6vectorIhSaIhEEC2Ev
	.weak	_ZNSt6vectorIhSaIhEEC1Ev
	.set	_ZNSt6vectorIhSaIhEEC1Ev,_ZNSt6vectorIhSaIhEEC2Ev
	.text
	.globl	_Z18aes128_encrypt_cbcRKNSt7__cxx1112basic_stringIcSt11char_traitsIcESaIcEEEPKc
	.type	_Z18aes128_encrypt_cbcRKNSt7__cxx1112basic_stringIcSt11char_traitsIcESaIcEEEPKc, @function
_Z18aes128_encrypt_cbcRKNSt7__cxx1112basic_stringIcSt11char_traitsIcESaIcEEEPKc:
.LFB7270:
	.cfi_startproc
	.cfi_personality 0x9b,DW.ref.__gxx_personality_v0
	.cfi_lsda 0x1b,.LLSDA7270
	endbr64
	push	rbp
	.cfi_def_cfa_offset 16
	.cfi_offset 6, -16
	mov	rbp, rsp
	.cfi_def_cfa_register 6
	push	r13
	push	r12
	push	rbx
	sub	rsp, 312
	.cfi_offset 13, -24
	.cfi_offset 12, -32
	.cfi_offset 3, -40
	mov	QWORD PTR -312[rbp], rdi
	mov	QWORD PTR -320[rbp], rsi
	mov	QWORD PTR -328[rbp], rdx
	mov	rax, QWORD PTR fs:40
	mov	QWORD PTR -40[rbp], rax
	xor	eax, eax
	lea	rdx, -288[rbp]
	mov	rax, QWORD PTR -328[rbp]
	mov	esi, 128
	mov	rdi, rax
.LEHB0:
	call	AES_set_encrypt_key@PLT
	lea	rax, -304[rbp]
	mov	rdi, rax
	call	_ZNSt5arrayIhLm16EE4dataEv
	mov	esi, 16
	mov	rdi, rax
	call	RAND_bytes@PLT
.LEHE0:
	mov	rax, QWORD PTR -312[rbp]
	mov	rdi, rax
	call	_ZNSt6vectorIhSaIhEEC1Ev
	mov	rax, QWORD PTR -320[rbp]
	mov	rdi, rax
	call	_ZNKSt7__cxx1112basic_stringIcSt11char_traitsIcESaIcEE4sizeEv@PLT
	lea	rdx, 16[rax]
	mov	rax, QWORD PTR -312[rbp]
	mov	rsi, rdx
	mov	rdi, rax
.LEHB1:
	call	_ZNSt6vectorIhSaIhEE6resizeEm
	lea	rax, -304[rbp]
	mov	rdi, rax
	call	_ZNSt5arrayIhLm16EE4dataEv
	mov	r13, rax
	mov	rax, QWORD PTR -320[rbp]
	mov	rdi, rax
	call	_ZNKSt7__cxx1112basic_stringIcSt11char_traitsIcESaIcEE4sizeEv@PLT
	mov	r12, rax
	mov	rax, QWORD PTR -312[rbp]
	mov	rdi, rax
	call	_ZNSt6vectorIhSaIhEE4dataEv
	mov	rbx, rax
	mov	rax, QWORD PTR -320[rbp]
	mov	rdi, rax
	call	_ZNKSt7__cxx1112basic_stringIcSt11char_traitsIcESaIcEE4dataEv@PLT
	mov	rdi, rax
	lea	rax, -288[rbp]
	mov	r9d, 1
	mov	r8, r13
	mov	rcx, rax
	mov	rdx, r12
	mov	rsi, rbx
	call	AES_cbc_encrypt@PLT
.LEHE1:
	jmp	.L21
.L20:
	endbr64
	mov	rbx, rax
	mov	rax, QWORD PTR -312[rbp]
	mov	rdi, rax
	call	_ZNSt6vectorIhSaIhEED1Ev
	mov	rax, rbx
	mov	rdi, rax
.LEHB2:
	call	_Unwind_Resume@PLT
.LEHE2:
.L21:
	mov	rax, QWORD PTR -40[rbp]
	sub	rax, QWORD PTR fs:40
	je	.L19
	call	__stack_chk_fail@PLT
.L19:
	mov	rax, QWORD PTR -312[rbp]
	add	rsp, 312
	pop	rbx
	pop	r12
	pop	r13
	pop	rbp
	.cfi_def_cfa 7, 8
	ret
	.cfi_endproc
.LFE7270:
	.globl	__gxx_personality_v0
	.section	.gcc_except_table,"a",@progbits
.LLSDA7270:
	.byte	0xff
	.byte	0xff
	.byte	0x1
	.uleb128 .LLSDACSE7270-.LLSDACSB7270
.LLSDACSB7270:
	.uleb128 .LEHB0-.LFB7270
	.uleb128 .LEHE0-.LEHB0
	.uleb128 0
	.uleb128 0
	.uleb128 .LEHB1-.LFB7270
	.uleb128 .LEHE1-.LEHB1
	.uleb128 .L20-.LFB7270
	.uleb128 0
	.uleb128 .LEHB2-.LFB7270
	.uleb128 .LEHE2-.LEHB2
	.uleb128 0
	.uleb128 0
.LLSDACSE7270:
	.text
	.size	_Z18aes128_encrypt_cbcRKNSt7__cxx1112basic_stringIcSt11char_traitsIcESaIcEEEPKc, .-_Z18aes128_encrypt_cbcRKNSt7__cxx1112basic_stringIcSt11char_traitsIcESaIcEEEPKc
	.section	.text.emptyComputation,"axG",@progbits,emptyComputation,comdat
	.weak	emptyComputation
	.type	emptyComputation, @function
emptyComputation:
.LFB7287:
	.cfi_startproc
	endbr64
	push	rbp
	.cfi_def_cfa_offset 16
	.cfi_offset 6, -16
	mov	rbp, rsp
	.cfi_def_cfa_register 6
	mov	DWORD PTR -4[rbp], 0
	jmp	.L23
.L24:
	add	DWORD PTR -4[rbp], 1
.L23:
	cmp	DWORD PTR -4[rbp], 999999999
	jle	.L24
	nop
	nop
	pop	rbp
	.cfi_def_cfa 7, 8
	ret
	.cfi_endproc
.LFE7287:
	.size	emptyComputation, .-emptyComputation
	.section	.rodata
.LC0:
	.string	"This is a plaintext"
	.section	.text.aesComputation,"axG",@progbits,aesComputation,comdat
	.weak	aesComputation
	.type	aesComputation, @function
aesComputation:
.LFB7288:
	.cfi_startproc
	.cfi_personality 0x9b,DW.ref.__gxx_personality_v0
	.cfi_lsda 0x1b,.LLSDA7288
	endbr64
	push	rbp
	.cfi_def_cfa_offset 16
	.cfi_offset 6, -16
	mov	rbp, rsp
	.cfi_def_cfa_register 6
	push	rbx
	sub	rsp, 120
	.cfi_offset 3, -24
	mov	rax, QWORD PTR fs:40
	mov	QWORD PTR -24[rbp], rax
	xor	eax, eax
	lea	rax, -112[rbp]
	mov	rdi, rax
	call	_ZNSaIcEC1Ev@PLT
	lea	rdx, -112[rbp]
	lea	rax, -80[rbp]
	lea	rcx, .LC0[rip]
	mov	rsi, rcx
	mov	rdi, rax
.LEHB3:
	call	_ZNSt7__cxx1112basic_stringIcSt11char_traitsIcESaIcEEC1IS3_EEPKcRKS3_
.LEHE3:
	lea	rax, -112[rbp]
	mov	rdi, rax
	call	_ZNSaIcED1Ev@PLT
	movabs	rax, 4050765991979987505
	movabs	rdx, 15258147055874361
	mov	QWORD PTR -48[rbp], rax
	mov	QWORD PTR -40[rbp], rdx
	mov	DWORD PTR -116[rbp], 0
	jmp	.L26
.L27:
	lea	rax, -112[rbp]
	lea	rdx, -48[rbp]
	lea	rcx, -80[rbp]
	mov	rsi, rcx
	mov	rdi, rax
.LEHB4:
	call	_Z18aes128_encrypt_cbcRKNSt7__cxx1112basic_stringIcSt11char_traitsIcESaIcEEEPKc
.LEHE4:
	lea	rax, -112[rbp]
	mov	rdi, rax
	call	_ZNSt6vectorIhSaIhEED1Ev
	add	DWORD PTR -116[rbp], 1
.L26:
	cmp	DWORD PTR -116[rbp], 9999
	jle	.L27
	lea	rax, -80[rbp]
	mov	rdi, rax
	call	_ZNSt7__cxx1112basic_stringIcSt11char_traitsIcESaIcEED1Ev@PLT
	mov	rax, QWORD PTR -24[rbp]
	sub	rax, QWORD PTR fs:40
	je	.L30
	jmp	.L33
.L31:
	endbr64
	mov	rbx, rax
	lea	rax, -112[rbp]
	mov	rdi, rax
	call	_ZNSaIcED1Ev@PLT
	mov	rax, rbx
	mov	rdi, rax
.LEHB5:
	call	_Unwind_Resume@PLT
.L32:
	endbr64
	mov	rbx, rax
	lea	rax, -80[rbp]
	mov	rdi, rax
	call	_ZNSt7__cxx1112basic_stringIcSt11char_traitsIcESaIcEED1Ev@PLT
	mov	rax, rbx
	mov	rdi, rax
	call	_Unwind_Resume@PLT
.LEHE5:
.L33:
	call	__stack_chk_fail@PLT
.L30:
	mov	rbx, QWORD PTR -8[rbp]
	leave
	.cfi_def_cfa 7, 8
	ret
	.cfi_endproc
.LFE7288:
	.section	.gcc_except_table
.LLSDA7288:
	.byte	0xff
	.byte	0xff
	.byte	0x1
	.uleb128 .LLSDACSE7288-.LLSDACSB7288
.LLSDACSB7288:
	.uleb128 .LEHB3-.LFB7288
	.uleb128 .LEHE3-.LEHB3
	.uleb128 .L31-.LFB7288
	.uleb128 0
	.uleb128 .LEHB4-.LFB7288
	.uleb128 .LEHE4-.LEHB4
	.uleb128 .L32-.LFB7288
	.uleb128 0
	.uleb128 .LEHB5-.LFB7288
	.uleb128 .LEHE5-.LEHB5
	.uleb128 0
	.uleb128 0
.LLSDACSE7288:
	.section	.text.aesComputation,"axG",@progbits,aesComputation,comdat
	.size	aesComputation, .-aesComputation
	.section	.rodata
.LC1:
	.string	"%d "
	.section	.text.avx2Computation,"axG",@progbits,avx2Computation,comdat
	.weak	avx2Computation
	.type	avx2Computation, @function
avx2Computation:
.LFB7289:
	.cfi_startproc
	endbr64
	push	rbp
	.cfi_def_cfa_offset 16
	.cfi_offset 6, -16
	mov	rbp, rsp
	.cfi_def_cfa_register 6
	sub	rsp, 96
	mov	rax, QWORD PTR fs:40
	mov	QWORD PTR -8[rbp], rax
	xor	eax, eax
	mov	DWORD PTR -80[rbp], 1
	mov	DWORD PTR -76[rbp], 2
	mov	DWORD PTR -72[rbp], 3
	mov	DWORD PTR -68[rbp], 4
	mov	DWORD PTR -64[rbp], 5
	mov	DWORD PTR -60[rbp], 6
	mov	DWORD PTR -56[rbp], 7
	mov	DWORD PTR -52[rbp], 8
	mov	DWORD PTR -48[rbp], 11
	mov	DWORD PTR -44[rbp], 12
	mov	DWORD PTR -40[rbp], 13
	mov	DWORD PTR -36[rbp], 14
	mov	DWORD PTR -32[rbp], 15
	mov	DWORD PTR -28[rbp], 16
	mov	DWORD PTR -24[rbp], 17
	mov	DWORD PTR -20[rbp], 18
#APP
# 32 "computations.cpp" 1
	vmovdqu -80[rbp], ymm0
	vmovdqu -48[rbp], ymm1
	vpaddd ymm0, ymm0, ymm1
	vmovdqu ymm0, -80[rbp]
	
# 0 "" 2
#NO_APP
	mov	DWORD PTR -84[rbp], 0
	jmp	.L35
.L36:
	mov	eax, DWORD PTR -84[rbp]
	cdqe
	mov	eax, DWORD PTR -80[rbp+rax*4]
	mov	esi, eax
	lea	rax, .LC1[rip]
	mov	rdi, rax
	mov	eax, 0
	call	printf@PLT
	add	DWORD PTR -84[rbp], 1
.L35:
	cmp	DWORD PTR -84[rbp], 7
	jle	.L36
	nop
	mov	rax, QWORD PTR -8[rbp]
	sub	rax, QWORD PTR fs:40
	je	.L37
	call	__stack_chk_fail@PLT
.L37:
	leave
	.cfi_def_cfa 7, 8
	ret
	.cfi_endproc
.LFE7289:
	.size	avx2Computation, .-avx2Computation
	.section	.text._ZNSt4pairIKNSt7__cxx1112basic_stringIcSt11char_traitsIcESaIcEEEPFvvEED2Ev,"axG",@progbits,_ZNSt4pairIKNSt7__cxx1112basic_stringIcSt11char_traitsIcESaIcEEEPFvvEED5Ev,comdat
	.align 2
	.weak	_ZNSt4pairIKNSt7__cxx1112basic_stringIcSt11char_traitsIcESaIcEEEPFvvEED2Ev
	.type	_ZNSt4pairIKNSt7__cxx1112basic_stringIcSt11char_traitsIcESaIcEEEPFvvEED2Ev, @function
_ZNSt4pairIKNSt7__cxx1112basic_stringIcSt11char_traitsIcESaIcEEEPFvvEED2Ev:
.LFB7301:
	.cfi_startproc
	endbr64
	push	rbp
	.cfi_def_cfa_offset 16
	.cfi_offset 6, -16
	mov	rbp, rsp
	.cfi_def_cfa_register 6
	sub	rsp, 16
	mov	QWORD PTR -8[rbp], rdi
	mov	rax, QWORD PTR -8[rbp]
	mov	rdi, rax
	call	_ZNSt7__cxx1112basic_stringIcSt11char_traitsIcESaIcEED1Ev@PLT
	nop
	leave
	.cfi_def_cfa 7, 8
	ret
	.cfi_endproc
.LFE7301:
	.size	_ZNSt4pairIKNSt7__cxx1112basic_stringIcSt11char_traitsIcESaIcEEEPFvvEED2Ev, .-_ZNSt4pairIKNSt7__cxx1112basic_stringIcSt11char_traitsIcESaIcEEEPFvvEED2Ev
	.weak	_ZNSt4pairIKNSt7__cxx1112basic_stringIcSt11char_traitsIcESaIcEEEPFvvEED1Ev
	.set	_ZNSt4pairIKNSt7__cxx1112basic_stringIcSt11char_traitsIcESaIcEEEPFvvEED1Ev,_ZNSt4pairIKNSt7__cxx1112basic_stringIcSt11char_traitsIcESaIcEEEPFvvEED2Ev
	.section	.text._ZNSt4pairIKNSt7__cxx1112basic_stringIcSt11char_traitsIcESaIcEEEPFvvEEC1IRA4_KcRS7_Lb1EEEOT_OT0_,"axG",@progbits,_ZNSt4pairIKNSt7__cxx1112basic_stringIcSt11char_traitsIcESaIcEEEPFvvEEC1IRA4_KcRS7_Lb1EEEOT_OT0_,comdat
	.align 2
	.weak	_ZNSt4pairIKNSt7__cxx1112basic_stringIcSt11char_traitsIcESaIcEEEPFvvEEC1IRA4_KcRS7_Lb1EEEOT_OT0_
	.type	_ZNSt4pairIKNSt7__cxx1112basic_stringIcSt11char_traitsIcESaIcEEEPFvvEEC1IRA4_KcRS7_Lb1EEEOT_OT0_, @function
_ZNSt4pairIKNSt7__cxx1112basic_stringIcSt11char_traitsIcESaIcEEEPFvvEEC1IRA4_KcRS7_Lb1EEEOT_OT0_:
.LFB7305:
	.cfi_startproc
	.cfi_personality 0x9b,DW.ref.__gxx_personality_v0
	.cfi_lsda 0x1b,.LLSDA7305
	endbr64
	push	rbp
	.cfi_def_cfa_offset 16
	.cfi_offset 6, -16
	mov	rbp, rsp
	.cfi_def_cfa_register 6
	push	rbx
	sub	rsp, 56
	.cfi_offset 3, -24
	mov	QWORD PTR -40[rbp], rdi
	mov	QWORD PTR -48[rbp], rsi
	mov	QWORD PTR -56[rbp], rdx
	mov	rax, QWORD PTR fs:40
	mov	QWORD PTR -24[rbp], rax
	xor	eax, eax
	mov	rbx, QWORD PTR -40[rbp]
	lea	rax, -25[rbp]
	mov	rdi, rax
	call	_ZNSaIcEC1Ev@PLT
	mov	rax, QWORD PTR -48[rbp]
	mov	rdi, rax
	call	_ZSt7forwardIRA4_KcEOT_RNSt16remove_referenceIS3_E4typeE
	mov	rcx, rax
	lea	rax, -25[rbp]
	mov	rdx, rax
	mov	rsi, rcx
	mov	rdi, rbx
.LEHB6:
	call	_ZNSt7__cxx1112basic_stringIcSt11char_traitsIcESaIcEEC1IS3_EEPKcRKS3_
.LEHE6:
	lea	rax, -25[rbp]
	mov	rdi, rax
	call	_ZNSaIcED1Ev@PLT
	mov	rax, QWORD PTR -56[rbp]
	mov	rdi, rax
	call	_ZSt7forwardIRFvvEEOT_RNSt16remove_referenceIS2_E4typeE
	mov	rdx, QWORD PTR -40[rbp]
	mov	QWORD PTR 32[rdx], rax
	nop
	mov	rax, QWORD PTR -24[rbp]
	sub	rax, QWORD PTR fs:40
	je	.L41
	jmp	.L43
.L42:
	endbr64
	mov	rbx, rax
	lea	rax, -25[rbp]
	mov	rdi, rax
	call	_ZNSaIcED1Ev@PLT
	mov	rax, rbx
	mov	rdi, rax
.LEHB7:
	call	_Unwind_Resume@PLT
.LEHE7:
.L43:
	call	__stack_chk_fail@PLT
.L41:
	mov	rbx, QWORD PTR -8[rbp]
	leave
	.cfi_def_cfa 7, 8
	ret
	.cfi_endproc
.LFE7305:
	.section	.gcc_except_table
.LLSDA7305:
	.byte	0xff
	.byte	0xff
	.byte	0x1
	.uleb128 .LLSDACSE7305-.LLSDACSB7305
.LLSDACSB7305:
	.uleb128 .LEHB6-.LFB7305
	.uleb128 .LEHE6-.LEHB6
	.uleb128 .L42-.LFB7305
	.uleb128 0
	.uleb128 .LEHB7-.LFB7305
	.uleb128 .LEHE7-.LEHB7
	.uleb128 0
	.uleb128 0
.LLSDACSE7305:
	.section	.text._ZNSt4pairIKNSt7__cxx1112basic_stringIcSt11char_traitsIcESaIcEEEPFvvEEC1IRA4_KcRS7_Lb1EEEOT_OT0_,"axG",@progbits,_ZNSt4pairIKNSt7__cxx1112basic_stringIcSt11char_traitsIcESaIcEEEPFvvEEC1IRA4_KcRS7_Lb1EEEOT_OT0_,comdat
	.size	_ZNSt4pairIKNSt7__cxx1112basic_stringIcSt11char_traitsIcESaIcEEEPFvvEEC1IRA4_KcRS7_Lb1EEEOT_OT0_, .-_ZNSt4pairIKNSt7__cxx1112basic_stringIcSt11char_traitsIcESaIcEEEPFvvEEC1IRA4_KcRS7_Lb1EEEOT_OT0_
	.section	.text._ZNSt4pairIKNSt7__cxx1112basic_stringIcSt11char_traitsIcESaIcEEEPFvvEEC1IRA6_KcRS7_Lb1EEEOT_OT0_,"axG",@progbits,_ZNSt4pairIKNSt7__cxx1112basic_stringIcSt11char_traitsIcESaIcEEEPFvvEEC1IRA6_KcRS7_Lb1EEEOT_OT0_,comdat
	.align 2
	.weak	_ZNSt4pairIKNSt7__cxx1112basic_stringIcSt11char_traitsIcESaIcEEEPFvvEEC1IRA6_KcRS7_Lb1EEEOT_OT0_
	.type	_ZNSt4pairIKNSt7__cxx1112basic_stringIcSt11char_traitsIcESaIcEEEPFvvEEC1IRA6_KcRS7_Lb1EEEOT_OT0_, @function
_ZNSt4pairIKNSt7__cxx1112basic_stringIcSt11char_traitsIcESaIcEEEPFvvEEC1IRA6_KcRS7_Lb1EEEOT_OT0_:
.LFB7308:
	.cfi_startproc
	.cfi_personality 0x9b,DW.ref.__gxx_personality_v0
	.cfi_lsda 0x1b,.LLSDA7308
	endbr64
	push	rbp
	.cfi_def_cfa_offset 16
	.cfi_offset 6, -16
	mov	rbp, rsp
	.cfi_def_cfa_register 6
	push	rbx
	sub	rsp, 56
	.cfi_offset 3, -24
	mov	QWORD PTR -40[rbp], rdi
	mov	QWORD PTR -48[rbp], rsi
	mov	QWORD PTR -56[rbp], rdx
	mov	rax, QWORD PTR fs:40
	mov	QWORD PTR -24[rbp], rax
	xor	eax, eax
	mov	rbx, QWORD PTR -40[rbp]
	lea	rax, -25[rbp]
	mov	rdi, rax
	call	_ZNSaIcEC1Ev@PLT
	mov	rax, QWORD PTR -48[rbp]
	mov	rdi, rax
	call	_ZSt7forwardIRA6_KcEOT_RNSt16remove_referenceIS3_E4typeE
	mov	rcx, rax
	lea	rax, -25[rbp]
	mov	rdx, rax
	mov	rsi, rcx
	mov	rdi, rbx
.LEHB8:
	call	_ZNSt7__cxx1112basic_stringIcSt11char_traitsIcESaIcEEC1IS3_EEPKcRKS3_
.LEHE8:
	lea	rax, -25[rbp]
	mov	rdi, rax
	call	_ZNSaIcED1Ev@PLT
	mov	rax, QWORD PTR -56[rbp]
	mov	rdi, rax
	call	_ZSt7forwardIRFvvEEOT_RNSt16remove_referenceIS2_E4typeE
	mov	rdx, QWORD PTR -40[rbp]
	mov	QWORD PTR 32[rdx], rax
	nop
	mov	rax, QWORD PTR -24[rbp]
	sub	rax, QWORD PTR fs:40
	je	.L46
	jmp	.L48
.L47:
	endbr64
	mov	rbx, rax
	lea	rax, -25[rbp]
	mov	rdi, rax
	call	_ZNSaIcED1Ev@PLT
	mov	rax, rbx
	mov	rdi, rax
.LEHB9:
	call	_Unwind_Resume@PLT
.LEHE9:
.L48:
	call	__stack_chk_fail@PLT
.L46:
	mov	rbx, QWORD PTR -8[rbp]
	leave
	.cfi_def_cfa 7, 8
	ret
	.cfi_endproc
.LFE7308:
	.section	.gcc_except_table
.LLSDA7308:
	.byte	0xff
	.byte	0xff
	.byte	0x1
	.uleb128 .LLSDACSE7308-.LLSDACSB7308
.LLSDACSB7308:
	.uleb128 .LEHB8-.LFB7308
	.uleb128 .LEHE8-.LEHB8
	.uleb128 .L47-.LFB7308
	.uleb128 0
	.uleb128 .LEHB9-.LFB7308
	.uleb128 .LEHE9-.LEHB9
	.uleb128 0
	.uleb128 0
.LLSDACSE7308:
	.section	.text._ZNSt4pairIKNSt7__cxx1112basic_stringIcSt11char_traitsIcESaIcEEEPFvvEEC1IRA6_KcRS7_Lb1EEEOT_OT0_,"axG",@progbits,_ZNSt4pairIKNSt7__cxx1112basic_stringIcSt11char_traitsIcESaIcEEEPFvvEEC1IRA6_KcRS7_Lb1EEEOT_OT0_,comdat
	.size	_ZNSt4pairIKNSt7__cxx1112basic_stringIcSt11char_traitsIcESaIcEEEPFvvEEC1IRA6_KcRS7_Lb1EEEOT_OT0_, .-_ZNSt4pairIKNSt7__cxx1112basic_stringIcSt11char_traitsIcESaIcEEEPFvvEEC1IRA6_KcRS7_Lb1EEEOT_OT0_
	.section	.text._ZNSt4pairIKNSt7__cxx1112basic_stringIcSt11char_traitsIcESaIcEEEPFvvEEC1IRA5_KcRS7_Lb1EEEOT_OT0_,"axG",@progbits,_ZNSt4pairIKNSt7__cxx1112basic_stringIcSt11char_traitsIcESaIcEEEPFvvEEC1IRA5_KcRS7_Lb1EEEOT_OT0_,comdat
	.align 2
	.weak	_ZNSt4pairIKNSt7__cxx1112basic_stringIcSt11char_traitsIcESaIcEEEPFvvEEC1IRA5_KcRS7_Lb1EEEOT_OT0_
	.type	_ZNSt4pairIKNSt7__cxx1112basic_stringIcSt11char_traitsIcESaIcEEEPFvvEEC1IRA5_KcRS7_Lb1EEEOT_OT0_, @function
_ZNSt4pairIKNSt7__cxx1112basic_stringIcSt11char_traitsIcESaIcEEEPFvvEEC1IRA5_KcRS7_Lb1EEEOT_OT0_:
.LFB7311:
	.cfi_startproc
	.cfi_personality 0x9b,DW.ref.__gxx_personality_v0
	.cfi_lsda 0x1b,.LLSDA7311
	endbr64
	push	rbp
	.cfi_def_cfa_offset 16
	.cfi_offset 6, -16
	mov	rbp, rsp
	.cfi_def_cfa_register 6
	push	rbx
	sub	rsp, 56
	.cfi_offset 3, -24
	mov	QWORD PTR -40[rbp], rdi
	mov	QWORD PTR -48[rbp], rsi
	mov	QWORD PTR -56[rbp], rdx
	mov	rax, QWORD PTR fs:40
	mov	QWORD PTR -24[rbp], rax
	xor	eax, eax
	mov	rbx, QWORD PTR -40[rbp]
	lea	rax, -25[rbp]
	mov	rdi, rax
	call	_ZNSaIcEC1Ev@PLT
	mov	rax, QWORD PTR -48[rbp]
	mov	rdi, rax
	call	_ZSt7forwardIRA5_KcEOT_RNSt16remove_referenceIS3_E4typeE
	mov	rcx, rax
	lea	rax, -25[rbp]
	mov	rdx, rax
	mov	rsi, rcx
	mov	rdi, rbx
.LEHB10:
	call	_ZNSt7__cxx1112basic_stringIcSt11char_traitsIcESaIcEEC1IS3_EEPKcRKS3_
.LEHE10:
	lea	rax, -25[rbp]
	mov	rdi, rax
	call	_ZNSaIcED1Ev@PLT
	mov	rax, QWORD PTR -56[rbp]
	mov	rdi, rax
	call	_ZSt7forwardIRFvvEEOT_RNSt16remove_referenceIS2_E4typeE
	mov	rdx, QWORD PTR -40[rbp]
	mov	QWORD PTR 32[rdx], rax
	nop
	mov	rax, QWORD PTR -24[rbp]
	sub	rax, QWORD PTR fs:40
	je	.L51
	jmp	.L53
.L52:
	endbr64
	mov	rbx, rax
	lea	rax, -25[rbp]
	mov	rdi, rax
	call	_ZNSaIcED1Ev@PLT
	mov	rax, rbx
	mov	rdi, rax
.LEHB11:
	call	_Unwind_Resume@PLT
.LEHE11:
.L53:
	call	__stack_chk_fail@PLT
.L51:
	mov	rbx, QWORD PTR -8[rbp]
	leave
	.cfi_def_cfa 7, 8
	ret
	.cfi_endproc
.LFE7311:
	.section	.gcc_except_table
.LLSDA7311:
	.byte	0xff
	.byte	0xff
	.byte	0x1
	.uleb128 .LLSDACSE7311-.LLSDACSB7311
.LLSDACSB7311:
	.uleb128 .LEHB10-.LFB7311
	.uleb128 .LEHE10-.LEHB10
	.uleb128 .L52-.LFB7311
	.uleb128 0
	.uleb128 .LEHB11-.LFB7311
	.uleb128 .LEHE11-.LEHB11
	.uleb128 0
	.uleb128 0
.LLSDACSE7311:
	.section	.text._ZNSt4pairIKNSt7__cxx1112basic_stringIcSt11char_traitsIcESaIcEEEPFvvEEC1IRA5_KcRS7_Lb1EEEOT_OT0_,"axG",@progbits,_ZNSt4pairIKNSt7__cxx1112basic_stringIcSt11char_traitsIcESaIcEEEPFvvEEC1IRA5_KcRS7_Lb1EEEOT_OT0_,comdat
	.size	_ZNSt4pairIKNSt7__cxx1112basic_stringIcSt11char_traitsIcESaIcEEEPFvvEEC1IRA5_KcRS7_Lb1EEEOT_OT0_, .-_ZNSt4pairIKNSt7__cxx1112basic_stringIcSt11char_traitsIcESaIcEEEPFvvEEC1IRA5_KcRS7_Lb1EEEOT_OT0_
	.globl	_Z12benchmarkMapB5cxx11
	.bss
	.align 32
	.type	_Z12benchmarkMapB5cxx11, @object
	.size	_Z12benchmarkMapB5cxx11, 48
_Z12benchmarkMapB5cxx11:
	.zero	48
	.section	.text._ZN9__gnu_cxx11char_traitsIcE6lengthEPKc,"axG",@progbits,_ZN9__gnu_cxx11char_traitsIcE6lengthEPKc,comdat
	.align 2
	.weak	_ZN9__gnu_cxx11char_traitsIcE6lengthEPKc
	.type	_ZN9__gnu_cxx11char_traitsIcE6lengthEPKc, @function
_ZN9__gnu_cxx11char_traitsIcE6lengthEPKc:
.LFB7312:
	.cfi_startproc
	endbr64
	push	rbp
	.cfi_def_cfa_offset 16
	.cfi_offset 6, -16
	mov	rbp, rsp
	.cfi_def_cfa_register 6
	sub	rsp, 48
	mov	QWORD PTR -40[rbp], rdi
	mov	rax, QWORD PTR fs:40
	mov	QWORD PTR -8[rbp], rax
	xor	eax, eax
	mov	QWORD PTR -16[rbp], 0
	jmp	.L55
.L56:
	add	QWORD PTR -16[rbp], 1
.L55:
	mov	BYTE PTR -17[rbp], 0
	mov	rdx, QWORD PTR -40[rbp]
	mov	rax, QWORD PTR -16[rbp]
	add	rdx, rax
	lea	rax, -17[rbp]
	mov	rsi, rax
	mov	rdi, rdx
	call	_ZN9__gnu_cxx11char_traitsIcE2eqERKcS3_
	xor	eax, 1
	test	al, al
	jne	.L56
	mov	rax, QWORD PTR -16[rbp]
	mov	rdx, QWORD PTR -8[rbp]
	sub	rdx, QWORD PTR fs:40
	je	.L58
	call	__stack_chk_fail@PLT
.L58:
	leave
	.cfi_def_cfa 7, 8
	ret
	.cfi_endproc
.LFE7312:
	.size	_ZN9__gnu_cxx11char_traitsIcE6lengthEPKc, .-_ZN9__gnu_cxx11char_traitsIcE6lengthEPKc
	.section	.text._ZNSt7__cxx1112basic_stringIcSt11char_traitsIcESaIcEE12_Alloc_hiderD2Ev,"axG",@progbits,_ZNSt7__cxx1112basic_stringIcSt11char_traitsIcESaIcEE12_Alloc_hiderD5Ev,comdat
	.align 2
	.weak	_ZNSt7__cxx1112basic_stringIcSt11char_traitsIcESaIcEE12_Alloc_hiderD2Ev
	.type	_ZNSt7__cxx1112basic_stringIcSt11char_traitsIcESaIcEE12_Alloc_hiderD2Ev, @function
_ZNSt7__cxx1112basic_stringIcSt11char_traitsIcESaIcEE12_Alloc_hiderD2Ev:
.LFB7421:
	.cfi_startproc
	endbr64
	push	rbp
	.cfi_def_cfa_offset 16
	.cfi_offset 6, -16
	mov	rbp, rsp
	.cfi_def_cfa_register 6
	sub	rsp, 16
	mov	QWORD PTR -8[rbp], rdi
	mov	rax, QWORD PTR -8[rbp]
	mov	rdi, rax
	call	_ZNSaIcED2Ev@PLT
	nop
	leave
	.cfi_def_cfa 7, 8
	ret
	.cfi_endproc
.LFE7421:
	.size	_ZNSt7__cxx1112basic_stringIcSt11char_traitsIcESaIcEE12_Alloc_hiderD2Ev, .-_ZNSt7__cxx1112basic_stringIcSt11char_traitsIcESaIcEE12_Alloc_hiderD2Ev
	.weak	_ZNSt7__cxx1112basic_stringIcSt11char_traitsIcESaIcEE12_Alloc_hiderD1Ev
	.set	_ZNSt7__cxx1112basic_stringIcSt11char_traitsIcESaIcEE12_Alloc_hiderD1Ev,_ZNSt7__cxx1112basic_stringIcSt11char_traitsIcESaIcEE12_Alloc_hiderD2Ev
	.section	.text._ZNSt5arrayIhLm16EE4dataEv,"axG",@progbits,_ZNSt5arrayIhLm16EE4dataEv,comdat
	.align 2
	.weak	_ZNSt5arrayIhLm16EE4dataEv
	.type	_ZNSt5arrayIhLm16EE4dataEv, @function
_ZNSt5arrayIhLm16EE4dataEv:
.LFB7569:
	.cfi_startproc
	endbr64
	push	rbp
	.cfi_def_cfa_offset 16
	.cfi_offset 6, -16
	mov	rbp, rsp
	.cfi_def_cfa_register 6
	sub	rsp, 16
	mov	QWORD PTR -8[rbp], rdi
	mov	rax, QWORD PTR -8[rbp]
	mov	rdi, rax
	call	_ZNSt14__array_traitsIhLm16EE6_S_ptrERA16_Kh
	leave
	.cfi_def_cfa 7, 8
	ret
	.cfi_endproc
.LFE7569:
	.size	_ZNSt5arrayIhLm16EE4dataEv, .-_ZNSt5arrayIhLm16EE4dataEv
	.section	.text._ZNSt12_Vector_baseIhSaIhEE12_Vector_implC2Ev,"axG",@progbits,_ZNSt12_Vector_baseIhSaIhEE12_Vector_implC5Ev,comdat
	.align 2
	.weak	_ZNSt12_Vector_baseIhSaIhEE12_Vector_implC2Ev
	.type	_ZNSt12_Vector_baseIhSaIhEE12_Vector_implC2Ev, @function
_ZNSt12_Vector_baseIhSaIhEE12_Vector_implC2Ev:
.LFB7571:
	.cfi_startproc
	endbr64
	push	rbp
	.cfi_def_cfa_offset 16
	.cfi_offset 6, -16
	mov	rbp, rsp
	.cfi_def_cfa_register 6
	sub	rsp, 16
	mov	QWORD PTR -8[rbp], rdi
	mov	rax, QWORD PTR -8[rbp]
	mov	rdi, rax
	call	_ZNSaIhEC2Ev
	mov	rax, QWORD PTR -8[rbp]
	mov	rdi, rax
	call	_ZNSt12_Vector_baseIhSaIhEE17_Vector_impl_dataC2Ev
	nop
	leave
	.cfi_def_cfa 7, 8
	ret
	.cfi_endproc
.LFE7571:
	.size	_ZNSt12_Vector_baseIhSaIhEE12_Vector_implC2Ev, .-_ZNSt12_Vector_baseIhSaIhEE12_Vector_implC2Ev
	.weak	_ZNSt12_Vector_baseIhSaIhEE12_Vector_implC1Ev
	.set	_ZNSt12_Vector_baseIhSaIhEE12_Vector_implC1Ev,_ZNSt12_Vector_baseIhSaIhEE12_Vector_implC2Ev
	.section	.text._ZNSaIhED2Ev,"axG",@progbits,_ZNSaIhED5Ev,comdat
	.align 2
	.weak	_ZNSaIhED2Ev
	.type	_ZNSaIhED2Ev, @function
_ZNSaIhED2Ev:
.LFB7574:
	.cfi_startproc
	endbr64
	push	rbp
	.cfi_def_cfa_offset 16
	.cfi_offset 6, -16
	mov	rbp, rsp
	.cfi_def_cfa_register 6
	sub	rsp, 16
	mov	QWORD PTR -8[rbp], rdi
	mov	rax, QWORD PTR -8[rbp]
	mov	rdi, rax
	call	_ZNSt15__new_allocatorIhED2Ev
	nop
	leave
	.cfi_def_cfa 7, 8
	ret
	.cfi_endproc
.LFE7574:
	.size	_ZNSaIhED2Ev, .-_ZNSaIhED2Ev
	.weak	_ZNSaIhED1Ev
	.set	_ZNSaIhED1Ev,_ZNSaIhED2Ev
	.section	.text._ZNSt12_Vector_baseIhSaIhEED2Ev,"axG",@progbits,_ZNSt12_Vector_baseIhSaIhEED5Ev,comdat
	.align 2
	.weak	_ZNSt12_Vector_baseIhSaIhEED2Ev
	.type	_ZNSt12_Vector_baseIhSaIhEED2Ev, @function
_ZNSt12_Vector_baseIhSaIhEED2Ev:
.LFB7577:
	.cfi_startproc
	.cfi_personality 0x9b,DW.ref.__gxx_personality_v0
	.cfi_lsda 0x1b,.LLSDA7577
	endbr64
	push	rbp
	.cfi_def_cfa_offset 16
	.cfi_offset 6, -16
	mov	rbp, rsp
	.cfi_def_cfa_register 6
	sub	rsp, 16
	mov	QWORD PTR -8[rbp], rdi
	mov	rax, QWORD PTR -8[rbp]
	mov	rdx, QWORD PTR 16[rax]
	mov	rax, QWORD PTR -8[rbp]
	mov	rax, QWORD PTR [rax]
	sub	rdx, rax
	mov	rax, QWORD PTR -8[rbp]
	mov	rcx, QWORD PTR [rax]
	mov	rax, QWORD PTR -8[rbp]
	mov	rsi, rcx
	mov	rdi, rax
	call	_ZNSt12_Vector_baseIhSaIhEE13_M_deallocateEPhm
	mov	rax, QWORD PTR -8[rbp]
	mov	rdi, rax
	call	_ZNSt12_Vector_baseIhSaIhEE12_Vector_implD1Ev
	nop
	leave
	.cfi_def_cfa 7, 8
	ret
	.cfi_endproc
.LFE7577:
	.section	.gcc_except_table
.LLSDA7577:
	.byte	0xff
	.byte	0xff
	.byte	0x1
	.uleb128 .LLSDACSE7577-.LLSDACSB7577
.LLSDACSB7577:
.LLSDACSE7577:
	.section	.text._ZNSt12_Vector_baseIhSaIhEED2Ev,"axG",@progbits,_ZNSt12_Vector_baseIhSaIhEED5Ev,comdat
	.size	_ZNSt12_Vector_baseIhSaIhEED2Ev, .-_ZNSt12_Vector_baseIhSaIhEED2Ev
	.weak	_ZNSt12_Vector_baseIhSaIhEED1Ev
	.set	_ZNSt12_Vector_baseIhSaIhEED1Ev,_ZNSt12_Vector_baseIhSaIhEED2Ev
	.section	.text._ZNSt6vectorIhSaIhEED2Ev,"axG",@progbits,_ZNSt6vectorIhSaIhEED5Ev,comdat
	.align 2
	.weak	_ZNSt6vectorIhSaIhEED2Ev
	.type	_ZNSt6vectorIhSaIhEED2Ev, @function
_ZNSt6vectorIhSaIhEED2Ev:
.LFB7580:
	.cfi_startproc
	.cfi_personality 0x9b,DW.ref.__gxx_personality_v0
	.cfi_lsda 0x1b,.LLSDA7580
	endbr64
	push	rbp
	.cfi_def_cfa_offset 16
	.cfi_offset 6, -16
	mov	rbp, rsp
	.cfi_def_cfa_register 6
	sub	rsp, 16
	mov	QWORD PTR -8[rbp], rdi
	mov	rax, QWORD PTR -8[rbp]
	mov	rdi, rax
	call	_ZNSt12_Vector_baseIhSaIhEE19_M_get_Tp_allocatorEv
	mov	rdx, rax
	mov	rax, QWORD PTR -8[rbp]
	mov	rcx, QWORD PTR 8[rax]
	mov	rax, QWORD PTR -8[rbp]
	mov	rax, QWORD PTR [rax]
	mov	rsi, rcx
	mov	rdi, rax
	call	_ZSt8_DestroyIPhhEvT_S1_RSaIT0_E
	mov	rax, QWORD PTR -8[rbp]
	mov	rdi, rax
	call	_ZNSt12_Vector_baseIhSaIhEED2Ev
	nop
	leave
	.cfi_def_cfa 7, 8
	ret
	.cfi_endproc
.LFE7580:
	.section	.gcc_except_table
.LLSDA7580:
	.byte	0xff
	.byte	0xff
	.byte	0x1
	.uleb128 .LLSDACSE7580-.LLSDACSB7580
.LLSDACSB7580:
.LLSDACSE7580:
	.section	.text._ZNSt6vectorIhSaIhEED2Ev,"axG",@progbits,_ZNSt6vectorIhSaIhEED5Ev,comdat
	.size	_ZNSt6vectorIhSaIhEED2Ev, .-_ZNSt6vectorIhSaIhEED2Ev
	.weak	_ZNSt6vectorIhSaIhEED1Ev
	.set	_ZNSt6vectorIhSaIhEED1Ev,_ZNSt6vectorIhSaIhEED2Ev
	.section	.text._ZNSt6vectorIhSaIhEE6resizeEm,"axG",@progbits,_ZNSt6vectorIhSaIhEE6resizeEm,comdat
	.align 2
	.weak	_ZNSt6vectorIhSaIhEE6resizeEm
	.type	_ZNSt6vectorIhSaIhEE6resizeEm, @function
_ZNSt6vectorIhSaIhEE6resizeEm:
.LFB7582:
	.cfi_startproc
	endbr64
	push	rbp
	.cfi_def_cfa_offset 16
	.cfi_offset 6, -16
	mov	rbp, rsp
	.cfi_def_cfa_register 6
	sub	rsp, 16
	mov	QWORD PTR -8[rbp], rdi
	mov	QWORD PTR -16[rbp], rsi
	mov	rax, QWORD PTR -8[rbp]
	mov	rdi, rax
	call	_ZNKSt6vectorIhSaIhEE4sizeEv
	cmp	rax, QWORD PTR -16[rbp]
	setb	al
	test	al, al
	je	.L67
	mov	rax, QWORD PTR -8[rbp]
	mov	rdi, rax
	call	_ZNKSt6vectorIhSaIhEE4sizeEv
	mov	rdx, QWORD PTR -16[rbp]
	sub	rdx, rax
	mov	rax, QWORD PTR -8[rbp]
	mov	rsi, rdx
	mov	rdi, rax
	call	_ZNSt6vectorIhSaIhEE17_M_default_appendEm
	jmp	.L69
.L67:
	mov	rax, QWORD PTR -8[rbp]
	mov	rdi, rax
	call	_ZNKSt6vectorIhSaIhEE4sizeEv
	cmp	QWORD PTR -16[rbp], rax
	setb	al
	test	al, al
	je	.L69
	mov	rax, QWORD PTR -8[rbp]
	mov	rdx, QWORD PTR [rax]
	mov	rax, QWORD PTR -16[rbp]
	add	rdx, rax
	mov	rax, QWORD PTR -8[rbp]
	mov	rsi, rdx
	mov	rdi, rax
	call	_ZNSt6vectorIhSaIhEE15_M_erase_at_endEPh
.L69:
	nop
	leave
	.cfi_def_cfa 7, 8
	ret
	.cfi_endproc
.LFE7582:
	.size	_ZNSt6vectorIhSaIhEE6resizeEm, .-_ZNSt6vectorIhSaIhEE6resizeEm
	.section	.text._ZNSt6vectorIhSaIhEE4dataEv,"axG",@progbits,_ZNSt6vectorIhSaIhEE4dataEv,comdat
	.align 2
	.weak	_ZNSt6vectorIhSaIhEE4dataEv
	.type	_ZNSt6vectorIhSaIhEE4dataEv, @function
_ZNSt6vectorIhSaIhEE4dataEv:
.LFB7583:
	.cfi_startproc
	endbr64
	push	rbp
	.cfi_def_cfa_offset 16
	.cfi_offset 6, -16
	mov	rbp, rsp
	.cfi_def_cfa_register 6
	sub	rsp, 16
	mov	QWORD PTR -8[rbp], rdi
	mov	rax, QWORD PTR -8[rbp]
	mov	rdx, QWORD PTR [rax]
	mov	rax, QWORD PTR -8[rbp]
	mov	rsi, rdx
	mov	rdi, rax
	call	_ZNKSt6vectorIhSaIhEE11_M_data_ptrIhEEPT_S4_
	leave
	.cfi_def_cfa 7, 8
	ret
	.cfi_endproc
.LFE7583:
	.size	_ZNSt6vectorIhSaIhEE4dataEv, .-_ZNSt6vectorIhSaIhEE4dataEv
	.section	.rodata
	.align 8
.LC2:
	.string	"basic_string: construction from null is not valid"
	.section	.text._ZNSt7__cxx1112basic_stringIcSt11char_traitsIcESaIcEEC2IS3_EEPKcRKS3_,"axG",@progbits,_ZNSt7__cxx1112basic_stringIcSt11char_traitsIcESaIcEEC5IS3_EEPKcRKS3_,comdat
	.align 2
	.weak	_ZNSt7__cxx1112basic_stringIcSt11char_traitsIcESaIcEEC2IS3_EEPKcRKS3_
	.type	_ZNSt7__cxx1112basic_stringIcSt11char_traitsIcESaIcEEC2IS3_EEPKcRKS3_, @function
_ZNSt7__cxx1112basic_stringIcSt11char_traitsIcESaIcEEC2IS3_EEPKcRKS3_:
.LFB7588:
	.cfi_startproc
	.cfi_personality 0x9b,DW.ref.__gxx_personality_v0
	.cfi_lsda 0x1b,.LLSDA7588
	endbr64
	push	rbp
	.cfi_def_cfa_offset 16
	.cfi_offset 6, -16
	mov	rbp, rsp
	.cfi_def_cfa_register 6
	push	rbx
	sub	rsp, 56
	.cfi_offset 3, -24
	mov	QWORD PTR -40[rbp], rdi
	mov	QWORD PTR -48[rbp], rsi
	mov	QWORD PTR -56[rbp], rdx
	mov	rbx, QWORD PTR -40[rbp]
	mov	rax, QWORD PTR -40[rbp]
	mov	rdi, rax
	call	_ZNSt7__cxx1112basic_stringIcSt11char_traitsIcESaIcEE13_M_local_dataEv@PLT
	mov	rcx, rax
	mov	rax, QWORD PTR -56[rbp]
	mov	rdx, rax
	mov	rsi, rcx
	mov	rdi, rbx
	call	_ZNSt7__cxx1112basic_stringIcSt11char_traitsIcESaIcEE12_Alloc_hiderC1EPcRKS3_@PLT
	cmp	QWORD PTR -48[rbp], 0
	jne	.L73
	lea	rax, .LC2[rip]
	mov	rdi, rax
.LEHB12:
	call	_ZSt19__throw_logic_errorPKc@PLT
.L73:
	mov	rax, QWORD PTR -48[rbp]
	mov	rdi, rax
	call	_ZNSt11char_traitsIcE6lengthEPKc
	mov	rdx, QWORD PTR -48[rbp]
	add	rax, rdx
	mov	QWORD PTR -24[rbp], rax
	mov	rdx, QWORD PTR -24[rbp]
	mov	rcx, QWORD PTR -48[rbp]
	mov	rax, QWORD PTR -40[rbp]
	mov	rsi, rcx
	mov	rdi, rax
	call	_ZNSt7__cxx1112basic_stringIcSt11char_traitsIcESaIcEE12_M_constructIPKcEEvT_S8_St20forward_iterator_tag
.LEHE12:
	jmp	.L76
.L75:
	endbr64
	mov	rbx, rax
	mov	rax, QWORD PTR -40[rbp]
	mov	rdi, rax
	call	_ZNSt7__cxx1112basic_stringIcSt11char_traitsIcESaIcEE12_Alloc_hiderD1Ev
	mov	rax, rbx
	mov	rdi, rax
.LEHB13:
	call	_Unwind_Resume@PLT
.LEHE13:
.L76:
	mov	rbx, QWORD PTR -8[rbp]
	leave
	.cfi_def_cfa 7, 8
	ret
	.cfi_endproc
.LFE7588:
	.section	.gcc_except_table
.LLSDA7588:
	.byte	0xff
	.byte	0xff
	.byte	0x1
	.uleb128 .LLSDACSE7588-.LLSDACSB7588
.LLSDACSB7588:
	.uleb128 .LEHB12-.LFB7588
	.uleb128 .LEHE12-.LEHB12
	.uleb128 .L75-.LFB7588
	.uleb128 0
	.uleb128 .LEHB13-.LFB7588
	.uleb128 .LEHE13-.LEHB13
	.uleb128 0
	.uleb128 0
.LLSDACSE7588:
	.section	.text._ZNSt7__cxx1112basic_stringIcSt11char_traitsIcESaIcEEC2IS3_EEPKcRKS3_,"axG",@progbits,_ZNSt7__cxx1112basic_stringIcSt11char_traitsIcESaIcEEC5IS3_EEPKcRKS3_,comdat
	.size	_ZNSt7__cxx1112basic_stringIcSt11char_traitsIcESaIcEEC2IS3_EEPKcRKS3_, .-_ZNSt7__cxx1112basic_stringIcSt11char_traitsIcESaIcEEC2IS3_EEPKcRKS3_
	.weak	_ZNSt7__cxx1112basic_stringIcSt11char_traitsIcESaIcEEC1IS3_EEPKcRKS3_
	.set	_ZNSt7__cxx1112basic_stringIcSt11char_traitsIcESaIcEEC1IS3_EEPKcRKS3_,_ZNSt7__cxx1112basic_stringIcSt11char_traitsIcESaIcEEC2IS3_EEPKcRKS3_
	.section	.text._ZSt7forwardIRA4_KcEOT_RNSt16remove_referenceIS3_E4typeE,"axG",@progbits,_ZSt7forwardIRA4_KcEOT_RNSt16remove_referenceIS3_E4typeE,comdat
	.weak	_ZSt7forwardIRA4_KcEOT_RNSt16remove_referenceIS3_E4typeE
	.type	_ZSt7forwardIRA4_KcEOT_RNSt16remove_referenceIS3_E4typeE, @function
_ZSt7forwardIRA4_KcEOT_RNSt16remove_referenceIS3_E4typeE:
.LFB7590:
	.cfi_startproc
	endbr64
	push	rbp
	.cfi_def_cfa_offset 16
	.cfi_offset 6, -16
	mov	rbp, rsp
	.cfi_def_cfa_register 6
	mov	QWORD PTR -8[rbp], rdi
	mov	rax, QWORD PTR -8[rbp]
	pop	rbp
	.cfi_def_cfa 7, 8
	ret
	.cfi_endproc
.LFE7590:
	.size	_ZSt7forwardIRA4_KcEOT_RNSt16remove_referenceIS3_E4typeE, .-_ZSt7forwardIRA4_KcEOT_RNSt16remove_referenceIS3_E4typeE
	.section	.text._ZSt7forwardIRFvvEEOT_RNSt16remove_referenceIS2_E4typeE,"axG",@progbits,_ZSt7forwardIRFvvEEOT_RNSt16remove_referenceIS2_E4typeE,comdat
	.weak	_ZSt7forwardIRFvvEEOT_RNSt16remove_referenceIS2_E4typeE
	.type	_ZSt7forwardIRFvvEEOT_RNSt16remove_referenceIS2_E4typeE, @function
_ZSt7forwardIRFvvEEOT_RNSt16remove_referenceIS2_E4typeE:
.LFB7591:
	.cfi_startproc
	endbr64
	push	rbp
	.cfi_def_cfa_offset 16
	.cfi_offset 6, -16
	mov	rbp, rsp
	.cfi_def_cfa_register 6
	mov	QWORD PTR -8[rbp], rdi
	mov	rax, QWORD PTR -8[rbp]
	pop	rbp
	.cfi_def_cfa 7, 8
	ret
	.cfi_endproc
.LFE7591:
	.size	_ZSt7forwardIRFvvEEOT_RNSt16remove_referenceIS2_E4typeE, .-_ZSt7forwardIRFvvEEOT_RNSt16remove_referenceIS2_E4typeE
	.section	.text._ZSt7forwardIRA6_KcEOT_RNSt16remove_referenceIS3_E4typeE,"axG",@progbits,_ZSt7forwardIRA6_KcEOT_RNSt16remove_referenceIS3_E4typeE,comdat
	.weak	_ZSt7forwardIRA6_KcEOT_RNSt16remove_referenceIS3_E4typeE
	.type	_ZSt7forwardIRA6_KcEOT_RNSt16remove_referenceIS3_E4typeE, @function
_ZSt7forwardIRA6_KcEOT_RNSt16remove_referenceIS3_E4typeE:
.LFB7592:
	.cfi_startproc
	endbr64
	push	rbp
	.cfi_def_cfa_offset 16
	.cfi_offset 6, -16
	mov	rbp, rsp
	.cfi_def_cfa_register 6
	mov	QWORD PTR -8[rbp], rdi
	mov	rax, QWORD PTR -8[rbp]
	pop	rbp
	.cfi_def_cfa 7, 8
	ret
	.cfi_endproc
.LFE7592:
	.size	_ZSt7forwardIRA6_KcEOT_RNSt16remove_referenceIS3_E4typeE, .-_ZSt7forwardIRA6_KcEOT_RNSt16remove_referenceIS3_E4typeE
	.section	.text._ZSt7forwardIRA5_KcEOT_RNSt16remove_referenceIS3_E4typeE,"axG",@progbits,_ZSt7forwardIRA5_KcEOT_RNSt16remove_referenceIS3_E4typeE,comdat
	.weak	_ZSt7forwardIRA5_KcEOT_RNSt16remove_referenceIS3_E4typeE
	.type	_ZSt7forwardIRA5_KcEOT_RNSt16remove_referenceIS3_E4typeE, @function
_ZSt7forwardIRA5_KcEOT_RNSt16remove_referenceIS3_E4typeE:
.LFB7593:
	.cfi_startproc
	endbr64
	push	rbp
	.cfi_def_cfa_offset 16
	.cfi_offset 6, -16
	mov	rbp, rsp
	.cfi_def_cfa_register 6
	mov	QWORD PTR -8[rbp], rdi
	mov	rax, QWORD PTR -8[rbp]
	pop	rbp
	.cfi_def_cfa 7, 8
	ret
	.cfi_endproc
.LFE7593:
	.size	_ZSt7forwardIRA5_KcEOT_RNSt16remove_referenceIS3_E4typeE, .-_ZSt7forwardIRA5_KcEOT_RNSt16remove_referenceIS3_E4typeE
	.section	.text._ZNSaISt4pairIKNSt7__cxx1112basic_stringIcSt11char_traitsIcESaIcEEEPFvvEEEC2Ev,"axG",@progbits,_ZNSaISt4pairIKNSt7__cxx1112basic_stringIcSt11char_traitsIcESaIcEEEPFvvEEEC5Ev,comdat
	.align 2
	.weak	_ZNSaISt4pairIKNSt7__cxx1112basic_stringIcSt11char_traitsIcESaIcEEEPFvvEEEC2Ev
	.type	_ZNSaISt4pairIKNSt7__cxx1112basic_stringIcSt11char_traitsIcESaIcEEEPFvvEEEC2Ev, @function
_ZNSaISt4pairIKNSt7__cxx1112basic_stringIcSt11char_traitsIcESaIcEEEPFvvEEEC2Ev:
.LFB7595:
	.cfi_startproc
	endbr64
	push	rbp
	.cfi_def_cfa_offset 16
	.cfi_offset 6, -16
	mov	rbp, rsp
	.cfi_def_cfa_register 6
	sub	rsp, 16
	mov	QWORD PTR -8[rbp], rdi
	mov	rax, QWORD PTR -8[rbp]
	mov	rdi, rax
	call	_ZNSt15__new_allocatorISt4pairIKNSt7__cxx1112basic_stringIcSt11char_traitsIcESaIcEEEPFvvEEEC2Ev
	nop
	leave
	.cfi_def_cfa 7, 8
	ret
	.cfi_endproc
.LFE7595:
	.size	_ZNSaISt4pairIKNSt7__cxx1112basic_stringIcSt11char_traitsIcESaIcEEEPFvvEEEC2Ev, .-_ZNSaISt4pairIKNSt7__cxx1112basic_stringIcSt11char_traitsIcESaIcEEEPFvvEEEC2Ev
	.weak	_ZNSaISt4pairIKNSt7__cxx1112basic_stringIcSt11char_traitsIcESaIcEEEPFvvEEEC1Ev
	.set	_ZNSaISt4pairIKNSt7__cxx1112basic_stringIcSt11char_traitsIcESaIcEEEPFvvEEEC1Ev,_ZNSaISt4pairIKNSt7__cxx1112basic_stringIcSt11char_traitsIcESaIcEEEPFvvEEEC2Ev
	.section	.text._ZNSaISt4pairIKNSt7__cxx1112basic_stringIcSt11char_traitsIcESaIcEEEPFvvEEED2Ev,"axG",@progbits,_ZNSaISt4pairIKNSt7__cxx1112basic_stringIcSt11char_traitsIcESaIcEEEPFvvEEED5Ev,comdat
	.align 2
	.weak	_ZNSaISt4pairIKNSt7__cxx1112basic_stringIcSt11char_traitsIcESaIcEEEPFvvEEED2Ev
	.type	_ZNSaISt4pairIKNSt7__cxx1112basic_stringIcSt11char_traitsIcESaIcEEEPFvvEEED2Ev, @function
_ZNSaISt4pairIKNSt7__cxx1112basic_stringIcSt11char_traitsIcESaIcEEEPFvvEEED2Ev:
.LFB7598:
	.cfi_startproc
	endbr64
	push	rbp
	.cfi_def_cfa_offset 16
	.cfi_offset 6, -16
	mov	rbp, rsp
	.cfi_def_cfa_register 6
	sub	rsp, 16
	mov	QWORD PTR -8[rbp], rdi
	mov	rax, QWORD PTR -8[rbp]
	mov	rdi, rax
	call	_ZNSt15__new_allocatorISt4pairIKNSt7__cxx1112basic_stringIcSt11char_traitsIcESaIcEEEPFvvEEED2Ev
	nop
	leave
	.cfi_def_cfa 7, 8
	ret
	.cfi_endproc
.LFE7598:
	.size	_ZNSaISt4pairIKNSt7__cxx1112basic_stringIcSt11char_traitsIcESaIcEEEPFvvEEED2Ev, .-_ZNSaISt4pairIKNSt7__cxx1112basic_stringIcSt11char_traitsIcESaIcEEEPFvvEEED2Ev
	.weak	_ZNSaISt4pairIKNSt7__cxx1112basic_stringIcSt11char_traitsIcESaIcEEEPFvvEEED1Ev
	.set	_ZNSaISt4pairIKNSt7__cxx1112basic_stringIcSt11char_traitsIcESaIcEEEPFvvEEED1Ev,_ZNSaISt4pairIKNSt7__cxx1112basic_stringIcSt11char_traitsIcESaIcEEEPFvvEEED2Ev
	.section	.text._ZNSt3mapINSt7__cxx1112basic_stringIcSt11char_traitsIcESaIcEEEPFvvESt4lessIS5_ESaISt4pairIKS5_S7_EEEC2ESt16initializer_listISC_ERKS9_RKSD_,"axG",@progbits,_ZNSt3mapINSt7__cxx1112basic_stringIcSt11char_traitsIcESaIcEEEPFvvESt4lessIS5_ESaISt4pairIKS5_S7_EEEC5ESt16initializer_listISC_ERKS9_RKSD_,comdat
	.align 2
	.weak	_ZNSt3mapINSt7__cxx1112basic_stringIcSt11char_traitsIcESaIcEEEPFvvESt4lessIS5_ESaISt4pairIKS5_S7_EEEC2ESt16initializer_listISC_ERKS9_RKSD_
	.type	_ZNSt3mapINSt7__cxx1112basic_stringIcSt11char_traitsIcESaIcEEEPFvvESt4lessIS5_ESaISt4pairIKS5_S7_EEEC2ESt16initializer_listISC_ERKS9_RKSD_, @function
_ZNSt3mapINSt7__cxx1112basic_stringIcSt11char_traitsIcESaIcEEEPFvvESt4lessIS5_ESaISt4pairIKS5_S7_EEEC2ESt16initializer_listISC_ERKS9_RKSD_:
.LFB7601:
	.cfi_startproc
	.cfi_personality 0x9b,DW.ref.__gxx_personality_v0
	.cfi_lsda 0x1b,.LLSDA7601
	endbr64
	push	rbp
	.cfi_def_cfa_offset 16
	.cfi_offset 6, -16
	mov	rbp, rsp
	.cfi_def_cfa_register 6
	push	r12
	push	rbx
	sub	rsp, 64
	.cfi_offset 12, -24
	.cfi_offset 3, -32
	mov	QWORD PTR -40[rbp], rdi
	mov	rax, rsi
	mov	rsi, rdx
	mov	rdx, rsi
	mov	QWORD PTR -64[rbp], rax
	mov	QWORD PTR -56[rbp], rdx
	mov	QWORD PTR -48[rbp], rcx
	mov	QWORD PTR -72[rbp], r8
	mov	rax, QWORD PTR fs:40
	mov	QWORD PTR -24[rbp], rax
	xor	eax, eax
	mov	rbx, QWORD PTR -40[rbp]
	mov	rdx, QWORD PTR -72[rbp]
	lea	rax, -25[rbp]
	mov	rsi, rdx
	mov	rdi, rax
	call	_ZNSaISt4pairIKNSt7__cxx1112basic_stringIcSt11char_traitsIcESaIcEEEPFvvEEEC1ERKSA_
	lea	rdx, -25[rbp]
	mov	rax, QWORD PTR -48[rbp]
	mov	rsi, rax
	mov	rdi, rbx
.LEHB14:
	call	_ZNSt8_Rb_treeINSt7__cxx1112basic_stringIcSt11char_traitsIcESaIcEEESt4pairIKS5_PFvvEESt10_Select1stISA_ESt4lessIS5_ESaISA_EEC1ERKSE_RKSF_
.LEHE14:
	lea	rax, -25[rbp]
	mov	rdi, rax
	call	_ZNSaISt4pairIKNSt7__cxx1112basic_stringIcSt11char_traitsIcESaIcEEEPFvvEEED1Ev
	mov	rbx, QWORD PTR -40[rbp]
	lea	rax, -64[rbp]
	mov	rdi, rax
	call	_ZNKSt16initializer_listISt4pairIKNSt7__cxx1112basic_stringIcSt11char_traitsIcESaIcEEEPFvvEEE3endEv
	mov	r12, rax
	lea	rax, -64[rbp]
	mov	rdi, rax
	call	_ZNKSt16initializer_listISt4pairIKNSt7__cxx1112basic_stringIcSt11char_traitsIcESaIcEEEPFvvEEE5beginEv
	mov	rdx, r12
	mov	rsi, rax
	mov	rdi, rbx
.LEHB15:
	call	_ZNSt8_Rb_treeINSt7__cxx1112basic_stringIcSt11char_traitsIcESaIcEEESt4pairIKS5_PFvvEESt10_Select1stISA_ESt4lessIS5_ESaISA_EE22_M_insert_range_uniqueIPKSA_EENSt9enable_ifIXsrSt7is_sameISA_NSt15iterator_traitsIT_E10value_typeEE5valueEvE4typeESN_SN_
.LEHE15:
	jmp	.L93
.L91:
	endbr64
	mov	rbx, rax
	lea	rax, -25[rbp]
	mov	rdi, rax
	call	_ZNSaISt4pairIKNSt7__cxx1112basic_stringIcSt11char_traitsIcESaIcEEEPFvvEEED1Ev
	mov	rax, rbx
	mov	rdi, rax
.LEHB16:
	call	_Unwind_Resume@PLT
.L92:
	endbr64
	mov	rbx, rax
	mov	rax, QWORD PTR -40[rbp]
	mov	rdi, rax
	call	_ZNSt8_Rb_treeINSt7__cxx1112basic_stringIcSt11char_traitsIcESaIcEEESt4pairIKS5_PFvvEESt10_Select1stISA_ESt4lessIS5_ESaISA_EED1Ev
	mov	rax, rbx
	mov	rdi, rax
	call	_Unwind_Resume@PLT
.LEHE16:
.L93:
	mov	rax, QWORD PTR -24[rbp]
	sub	rax, QWORD PTR fs:40
	je	.L90
	call	__stack_chk_fail@PLT
.L90:
	add	rsp, 64
	pop	rbx
	pop	r12
	pop	rbp
	.cfi_def_cfa 7, 8
	ret
	.cfi_endproc
.LFE7601:
	.section	.gcc_except_table
.LLSDA7601:
	.byte	0xff
	.byte	0xff
	.byte	0x1
	.uleb128 .LLSDACSE7601-.LLSDACSB7601
.LLSDACSB7601:
	.uleb128 .LEHB14-.LFB7601
	.uleb128 .LEHE14-.LEHB14
	.uleb128 .L91-.LFB7601
	.uleb128 0
	.uleb128 .LEHB15-.LFB7601
	.uleb128 .LEHE15-.LEHB15
	.uleb128 .L92-.LFB7601
	.uleb128 0
	.uleb128 .LEHB16-.LFB7601
	.uleb128 .LEHE16-.LEHB16
	.uleb128 0
	.uleb128 0
.LLSDACSE7601:
	.section	.text._ZNSt3mapINSt7__cxx1112basic_stringIcSt11char_traitsIcESaIcEEEPFvvESt4lessIS5_ESaISt4pairIKS5_S7_EEEC2ESt16initializer_listISC_ERKS9_RKSD_,"axG",@progbits,_ZNSt3mapINSt7__cxx1112basic_stringIcSt11char_traitsIcESaIcEEEPFvvESt4lessIS5_ESaISt4pairIKS5_S7_EEEC5ESt16initializer_listISC_ERKS9_RKSD_,comdat
	.size	_ZNSt3mapINSt7__cxx1112basic_stringIcSt11char_traitsIcESaIcEEEPFvvESt4lessIS5_ESaISt4pairIKS5_S7_EEEC2ESt16initializer_listISC_ERKS9_RKSD_, .-_ZNSt3mapINSt7__cxx1112basic_stringIcSt11char_traitsIcESaIcEEEPFvvESt4lessIS5_ESaISt4pairIKS5_S7_EEEC2ESt16initializer_listISC_ERKS9_RKSD_
	.weak	_ZNSt3mapINSt7__cxx1112basic_stringIcSt11char_traitsIcESaIcEEEPFvvESt4lessIS5_ESaISt4pairIKS5_S7_EEEC1ESt16initializer_listISC_ERKS9_RKSD_
	.set	_ZNSt3mapINSt7__cxx1112basic_stringIcSt11char_traitsIcESaIcEEEPFvvESt4lessIS5_ESaISt4pairIKS5_S7_EEEC1ESt16initializer_listISC_ERKS9_RKSD_,_ZNSt3mapINSt7__cxx1112basic_stringIcSt11char_traitsIcESaIcEEEPFvvESt4lessIS5_ESaISt4pairIKS5_S7_EEEC2ESt16initializer_listISC_ERKS9_RKSD_
	.section	.text._ZN9__gnu_cxx11char_traitsIcE2eqERKcS3_,"axG",@progbits,_ZN9__gnu_cxx11char_traitsIcE2eqERKcS3_,comdat
	.weak	_ZN9__gnu_cxx11char_traitsIcE2eqERKcS3_
	.type	_ZN9__gnu_cxx11char_traitsIcE2eqERKcS3_, @function
_ZN9__gnu_cxx11char_traitsIcE2eqERKcS3_:
.LFB7603:
	.cfi_startproc
	endbr64
	push	rbp
	.cfi_def_cfa_offset 16
	.cfi_offset 6, -16
	mov	rbp, rsp
	.cfi_def_cfa_register 6
	mov	QWORD PTR -8[rbp], rdi
	mov	QWORD PTR -16[rbp], rsi
	mov	rax, QWORD PTR -8[rbp]
	movzx	edx, BYTE PTR [rax]
	mov	rax, QWORD PTR -16[rbp]
	movzx	eax, BYTE PTR [rax]
	cmp	dl, al
	sete	al
	pop	rbp
	.cfi_def_cfa 7, 8
	ret
	.cfi_endproc
.LFE7603:
	.size	_ZN9__gnu_cxx11char_traitsIcE2eqERKcS3_, .-_ZN9__gnu_cxx11char_traitsIcE2eqERKcS3_
	.section	.text._ZZNSt7__cxx1112basic_stringIcSt11char_traitsIcESaIcEE12_M_constructIPKcEEvT_S8_St20forward_iterator_tagEN6_GuardC2EPS4_,"axG",@progbits,_ZZNSt7__cxx1112basic_stringIcSt11char_traitsIcESaIcEE12_M_constructIPKcEEvT_S8_St20forward_iterator_tagEN6_GuardC5EPS4_,comdat
	.align 2
	.weak	_ZZNSt7__cxx1112basic_stringIcSt11char_traitsIcESaIcEE12_M_constructIPKcEEvT_S8_St20forward_iterator_tagEN6_GuardC2EPS4_
	.type	_ZZNSt7__cxx1112basic_stringIcSt11char_traitsIcESaIcEE12_M_constructIPKcEEvT_S8_St20forward_iterator_tagEN6_GuardC2EPS4_, @function
_ZZNSt7__cxx1112basic_stringIcSt11char_traitsIcESaIcEE12_M_constructIPKcEEvT_S8_St20forward_iterator_tagEN6_GuardC2EPS4_:
.LFB7640:
	.cfi_startproc
	endbr64
	push	rbp
	.cfi_def_cfa_offset 16
	.cfi_offset 6, -16
	mov	rbp, rsp
	.cfi_def_cfa_register 6
	mov	QWORD PTR -8[rbp], rdi
	mov	QWORD PTR -16[rbp], rsi
	mov	rax, QWORD PTR -8[rbp]
	mov	rdx, QWORD PTR -16[rbp]
	mov	QWORD PTR [rax], rdx
	nop
	pop	rbp
	.cfi_def_cfa 7, 8
	ret
	.cfi_endproc
.LFE7640:
	.size	_ZZNSt7__cxx1112basic_stringIcSt11char_traitsIcESaIcEE12_M_constructIPKcEEvT_S8_St20forward_iterator_tagEN6_GuardC2EPS4_, .-_ZZNSt7__cxx1112basic_stringIcSt11char_traitsIcESaIcEE12_M_constructIPKcEEvT_S8_St20forward_iterator_tagEN6_GuardC2EPS4_
	.weak	_ZZNSt7__cxx1112basic_stringIcSt11char_traitsIcESaIcEE12_M_constructIPKcEEvT_S8_St20forward_iterator_tagEN6_GuardC1EPS4_
	.set	_ZZNSt7__cxx1112basic_stringIcSt11char_traitsIcESaIcEE12_M_constructIPKcEEvT_S8_St20forward_iterator_tagEN6_GuardC1EPS4_,_ZZNSt7__cxx1112basic_stringIcSt11char_traitsIcESaIcEE12_M_constructIPKcEEvT_S8_St20forward_iterator_tagEN6_GuardC2EPS4_
	.section	.text._ZZNSt7__cxx1112basic_stringIcSt11char_traitsIcESaIcEE12_M_constructIPKcEEvT_S8_St20forward_iterator_tagEN6_GuardD2Ev,"axG",@progbits,_ZZNSt7__cxx1112basic_stringIcSt11char_traitsIcESaIcEE12_M_constructIPKcEEvT_S8_St20forward_iterator_tagEN6_GuardD5Ev,comdat
	.align 2
	.weak	_ZZNSt7__cxx1112basic_stringIcSt11char_traitsIcESaIcEE12_M_constructIPKcEEvT_S8_St20forward_iterator_tagEN6_GuardD2Ev
	.type	_ZZNSt7__cxx1112basic_stringIcSt11char_traitsIcESaIcEE12_M_constructIPKcEEvT_S8_St20forward_iterator_tagEN6_GuardD2Ev, @function
_ZZNSt7__cxx1112basic_stringIcSt11char_traitsIcESaIcEE12_M_constructIPKcEEvT_S8_St20forward_iterator_tagEN6_GuardD2Ev:
.LFB7643:
	.cfi_startproc
	.cfi_personality 0x9b,DW.ref.__gxx_personality_v0
	.cfi_lsda 0x1b,.LLSDA7643
	endbr64
	push	rbp
	.cfi_def_cfa_offset 16
	.cfi_offset 6, -16
	mov	rbp, rsp
	.cfi_def_cfa_register 6
	sub	rsp, 16
	mov	QWORD PTR -8[rbp], rdi
	mov	rax, QWORD PTR -8[rbp]
	mov	rax, QWORD PTR [rax]
	test	rax, rax
	je	.L99
	mov	rax, QWORD PTR -8[rbp]
	mov	rax, QWORD PTR [rax]
	mov	rdi, rax
	call	_ZNSt7__cxx1112basic_stringIcSt11char_traitsIcESaIcEE10_M_disposeEv@PLT
.L99:
	nop
	leave
	.cfi_def_cfa 7, 8
	ret
	.cfi_endproc
.LFE7643:
	.section	.gcc_except_table
.LLSDA7643:
	.byte	0xff
	.byte	0xff
	.byte	0x1
	.uleb128 .LLSDACSE7643-.LLSDACSB7643
.LLSDACSB7643:
.LLSDACSE7643:
	.section	.text._ZZNSt7__cxx1112basic_stringIcSt11char_traitsIcESaIcEE12_M_constructIPKcEEvT_S8_St20forward_iterator_tagEN6_GuardD2Ev,"axG",@progbits,_ZZNSt7__cxx1112basic_stringIcSt11char_traitsIcESaIcEE12_M_constructIPKcEEvT_S8_St20forward_iterator_tagEN6_GuardD5Ev,comdat
	.size	_ZZNSt7__cxx1112basic_stringIcSt11char_traitsIcESaIcEE12_M_constructIPKcEEvT_S8_St20forward_iterator_tagEN6_GuardD2Ev, .-_ZZNSt7__cxx1112basic_stringIcSt11char_traitsIcESaIcEE12_M_constructIPKcEEvT_S8_St20forward_iterator_tagEN6_GuardD2Ev
	.weak	_ZZNSt7__cxx1112basic_stringIcSt11char_traitsIcESaIcEE12_M_constructIPKcEEvT_S8_St20forward_iterator_tagEN6_GuardD1Ev
	.set	_ZZNSt7__cxx1112basic_stringIcSt11char_traitsIcESaIcEE12_M_constructIPKcEEvT_S8_St20forward_iterator_tagEN6_GuardD1Ev,_ZZNSt7__cxx1112basic_stringIcSt11char_traitsIcESaIcEE12_M_constructIPKcEEvT_S8_St20forward_iterator_tagEN6_GuardD2Ev
	.section	.text._ZNSt7__cxx1112basic_stringIcSt11char_traitsIcESaIcEE12_M_constructIPKcEEvT_S8_St20forward_iterator_tag,"axG",@progbits,_ZNSt7__cxx1112basic_stringIcSt11char_traitsIcESaIcEE12_M_constructIPKcEEvT_S8_St20forward_iterator_tag,comdat
	.align 2
	.weak	_ZNSt7__cxx1112basic_stringIcSt11char_traitsIcESaIcEE12_M_constructIPKcEEvT_S8_St20forward_iterator_tag
	.type	_ZNSt7__cxx1112basic_stringIcSt11char_traitsIcESaIcEE12_M_constructIPKcEEvT_S8_St20forward_iterator_tag, @function
_ZNSt7__cxx1112basic_stringIcSt11char_traitsIcESaIcEE12_M_constructIPKcEEvT_S8_St20forward_iterator_tag:
.LFB7638:
	.cfi_startproc
	endbr64
	push	rbp
	.cfi_def_cfa_offset 16
	.cfi_offset 6, -16
	mov	rbp, rsp
	.cfi_def_cfa_register 6
	sub	rsp, 64
	mov	QWORD PTR -40[rbp], rdi
	mov	QWORD PTR -48[rbp], rsi
	mov	QWORD PTR -56[rbp], rdx
	mov	rax, QWORD PTR fs:40
	mov	QWORD PTR -8[rbp], rax
	xor	eax, eax
	mov	rdx, QWORD PTR -56[rbp]
	mov	rax, QWORD PTR -48[rbp]
	mov	rsi, rdx
	mov	rdi, rax
	call	_ZSt8distanceIPKcENSt15iterator_traitsIT_E15difference_typeES3_S3_
	mov	QWORD PTR -32[rbp], rax
	mov	rax, QWORD PTR -32[rbp]
	cmp	rax, 15
	jbe	.L101
	lea	rcx, -32[rbp]
	mov	rax, QWORD PTR -40[rbp]
	mov	edx, 0
	mov	rsi, rcx
	mov	rdi, rax
	call	_ZNSt7__cxx1112basic_stringIcSt11char_traitsIcESaIcEE9_M_createERmm@PLT
	mov	rdx, rax
	mov	rax, QWORD PTR -40[rbp]
	mov	rsi, rdx
	mov	rdi, rax
	call	_ZNSt7__cxx1112basic_stringIcSt11char_traitsIcESaIcEE7_M_dataEPc@PLT
	mov	rdx, QWORD PTR -32[rbp]
	mov	rax, QWORD PTR -40[rbp]
	mov	rsi, rdx
	mov	rdi, rax
	call	_ZNSt7__cxx1112basic_stringIcSt11char_traitsIcESaIcEE11_M_capacityEm@PLT
	jmp	.L102
.L101:
	mov	rax, QWORD PTR -40[rbp]
	mov	QWORD PTR -16[rbp], rax
	mov	rax, QWORD PTR -16[rbp]
	mov	rdi, rax
	call	_ZNSt7__cxx1112basic_stringIcSt11char_traitsIcESaIcEE13_M_local_dataEv@PLT
	nop
.L102:
	mov	rdx, QWORD PTR -40[rbp]
	lea	rax, -24[rbp]
	mov	rsi, rdx
	mov	rdi, rax
	call	_ZZNSt7__cxx1112basic_stringIcSt11char_traitsIcESaIcEE12_M_constructIPKcEEvT_S8_St20forward_iterator_tagEN6_GuardC1EPS4_
	mov	rax, QWORD PTR -40[rbp]
	mov	rdi, rax
	call	_ZNKSt7__cxx1112basic_stringIcSt11char_traitsIcESaIcEE7_M_dataEv@PLT
	mov	rcx, rax
	mov	rdx, QWORD PTR -56[rbp]
	mov	rax, QWORD PTR -48[rbp]
	mov	rsi, rax
	mov	rdi, rcx
	call	_ZNSt7__cxx1112basic_stringIcSt11char_traitsIcESaIcEE13_S_copy_charsEPcPKcS7_@PLT
	mov	QWORD PTR -24[rbp], 0
	mov	rdx, QWORD PTR -32[rbp]
	mov	rax, QWORD PTR -40[rbp]
	mov	rsi, rdx
	mov	rdi, rax
	call	_ZNSt7__cxx1112basic_stringIcSt11char_traitsIcESaIcEE13_M_set_lengthEm@PLT
	lea	rax, -24[rbp]
	mov	rdi, rax
	call	_ZZNSt7__cxx1112basic_stringIcSt11char_traitsIcESaIcEE12_M_constructIPKcEEvT_S8_St20forward_iterator_tagEN6_GuardD1Ev
	mov	rax, QWORD PTR -8[rbp]
	sub	rax, QWORD PTR fs:40
	je	.L104
	call	__stack_chk_fail@PLT
.L104:
	leave
	.cfi_def_cfa 7, 8
	ret
	.cfi_endproc
.LFE7638:
	.size	_ZNSt7__cxx1112basic_stringIcSt11char_traitsIcESaIcEE12_M_constructIPKcEEvT_S8_St20forward_iterator_tag, .-_ZNSt7__cxx1112basic_stringIcSt11char_traitsIcESaIcEE12_M_constructIPKcEEvT_S8_St20forward_iterator_tag
	.section	.text._ZNSt14__array_traitsIhLm16EE6_S_ptrERA16_Kh,"axG",@progbits,_ZNSt14__array_traitsIhLm16EE6_S_ptrERA16_Kh,comdat
	.weak	_ZNSt14__array_traitsIhLm16EE6_S_ptrERA16_Kh
	.type	_ZNSt14__array_traitsIhLm16EE6_S_ptrERA16_Kh, @function
_ZNSt14__array_traitsIhLm16EE6_S_ptrERA16_Kh:
.LFB7698:
	.cfi_startproc
	endbr64
	push	rbp
	.cfi_def_cfa_offset 16
	.cfi_offset 6, -16
	mov	rbp, rsp
	.cfi_def_cfa_register 6
	mov	QWORD PTR -8[rbp], rdi
	mov	rax, QWORD PTR -8[rbp]
	pop	rbp
	.cfi_def_cfa 7, 8
	ret
	.cfi_endproc
.LFE7698:
	.size	_ZNSt14__array_traitsIhLm16EE6_S_ptrERA16_Kh, .-_ZNSt14__array_traitsIhLm16EE6_S_ptrERA16_Kh
	.section	.text._ZNSaIhEC2Ev,"axG",@progbits,_ZNSaIhEC5Ev,comdat
	.align 2
	.weak	_ZNSaIhEC2Ev
	.type	_ZNSaIhEC2Ev, @function
_ZNSaIhEC2Ev:
.LFB7700:
	.cfi_startproc
	endbr64
	push	rbp
	.cfi_def_cfa_offset 16
	.cfi_offset 6, -16
	mov	rbp, rsp
	.cfi_def_cfa_register 6
	sub	rsp, 16
	mov	QWORD PTR -8[rbp], rdi
	mov	rax, QWORD PTR -8[rbp]
	mov	rdi, rax
	call	_ZNSt15__new_allocatorIhEC2Ev
	nop
	leave
	.cfi_def_cfa 7, 8
	ret
	.cfi_endproc
.LFE7700:
	.size	_ZNSaIhEC2Ev, .-_ZNSaIhEC2Ev
	.weak	_ZNSaIhEC1Ev
	.set	_ZNSaIhEC1Ev,_ZNSaIhEC2Ev
	.section	.text._ZNSt12_Vector_baseIhSaIhEE17_Vector_impl_dataC2Ev,"axG",@progbits,_ZNSt12_Vector_baseIhSaIhEE17_Vector_impl_dataC5Ev,comdat
	.align 2
	.weak	_ZNSt12_Vector_baseIhSaIhEE17_Vector_impl_dataC2Ev
	.type	_ZNSt12_Vector_baseIhSaIhEE17_Vector_impl_dataC2Ev, @function
_ZNSt12_Vector_baseIhSaIhEE17_Vector_impl_dataC2Ev:
.LFB7703:
	.cfi_startproc
	endbr64
	push	rbp
	.cfi_def_cfa_offset 16
	.cfi_offset 6, -16
	mov	rbp, rsp
	.cfi_def_cfa_register 6
	mov	QWORD PTR -8[rbp], rdi
	mov	rax, QWORD PTR -8[rbp]
	mov	QWORD PTR [rax], 0
	mov	rax, QWORD PTR -8[rbp]
	mov	QWORD PTR 8[rax], 0
	mov	rax, QWORD PTR -8[rbp]
	mov	QWORD PTR 16[rax], 0
	nop
	pop	rbp
	.cfi_def_cfa 7, 8
	ret
	.cfi_endproc
.LFE7703:
	.size	_ZNSt12_Vector_baseIhSaIhEE17_Vector_impl_dataC2Ev, .-_ZNSt12_Vector_baseIhSaIhEE17_Vector_impl_dataC2Ev
	.weak	_ZNSt12_Vector_baseIhSaIhEE17_Vector_impl_dataC1Ev
	.set	_ZNSt12_Vector_baseIhSaIhEE17_Vector_impl_dataC1Ev,_ZNSt12_Vector_baseIhSaIhEE17_Vector_impl_dataC2Ev
	.section	.text._ZNSt15__new_allocatorIhED2Ev,"axG",@progbits,_ZNSt15__new_allocatorIhED5Ev,comdat
	.align 2
	.weak	_ZNSt15__new_allocatorIhED2Ev
	.type	_ZNSt15__new_allocatorIhED2Ev, @function
_ZNSt15__new_allocatorIhED2Ev:
.LFB7706:
	.cfi_startproc
	endbr64
	push	rbp
	.cfi_def_cfa_offset 16
	.cfi_offset 6, -16
	mov	rbp, rsp
	.cfi_def_cfa_register 6
	mov	QWORD PTR -8[rbp], rdi
	nop
	pop	rbp
	.cfi_def_cfa 7, 8
	ret
	.cfi_endproc
.LFE7706:
	.size	_ZNSt15__new_allocatorIhED2Ev, .-_ZNSt15__new_allocatorIhED2Ev
	.weak	_ZNSt15__new_allocatorIhED1Ev
	.set	_ZNSt15__new_allocatorIhED1Ev,_ZNSt15__new_allocatorIhED2Ev
	.section	.text._ZNSt12_Vector_baseIhSaIhEE13_M_deallocateEPhm,"axG",@progbits,_ZNSt12_Vector_baseIhSaIhEE13_M_deallocateEPhm,comdat
	.align 2
	.weak	_ZNSt12_Vector_baseIhSaIhEE13_M_deallocateEPhm
	.type	_ZNSt12_Vector_baseIhSaIhEE13_M_deallocateEPhm, @function
_ZNSt12_Vector_baseIhSaIhEE13_M_deallocateEPhm:
.LFB7708:
	.cfi_startproc
	endbr64
	push	rbp
	.cfi_def_cfa_offset 16
	.cfi_offset 6, -16
	mov	rbp, rsp
	.cfi_def_cfa_register 6
	sub	rsp, 32
	mov	QWORD PTR -8[rbp], rdi
	mov	QWORD PTR -16[rbp], rsi
	mov	QWORD PTR -24[rbp], rdx
	cmp	QWORD PTR -16[rbp], 0
	je	.L112
	mov	rax, QWORD PTR -8[rbp]
	mov	rdx, QWORD PTR -24[rbp]
	mov	rcx, QWORD PTR -16[rbp]
	mov	rsi, rcx
	mov	rdi, rax
	call	_ZNSt16allocator_traitsISaIhEE10deallocateERS0_Phm
.L112:
	nop
	leave
	.cfi_def_cfa 7, 8
	ret
	.cfi_endproc
.LFE7708:
	.size	_ZNSt12_Vector_baseIhSaIhEE13_M_deallocateEPhm, .-_ZNSt12_Vector_baseIhSaIhEE13_M_deallocateEPhm
	.section	.text._ZNSt12_Vector_baseIhSaIhEE19_M_get_Tp_allocatorEv,"axG",@progbits,_ZNSt12_Vector_baseIhSaIhEE19_M_get_Tp_allocatorEv,comdat
	.align 2
	.weak	_ZNSt12_Vector_baseIhSaIhEE19_M_get_Tp_allocatorEv
	.type	_ZNSt12_Vector_baseIhSaIhEE19_M_get_Tp_allocatorEv, @function
_ZNSt12_Vector_baseIhSaIhEE19_M_get_Tp_allocatorEv:
.LFB7709:
	.cfi_startproc
	endbr64
	push	rbp
	.cfi_def_cfa_offset 16
	.cfi_offset 6, -16
	mov	rbp, rsp
	.cfi_def_cfa_register 6
	mov	QWORD PTR -8[rbp], rdi
	mov	rax, QWORD PTR -8[rbp]
	pop	rbp
	.cfi_def_cfa 7, 8
	ret
	.cfi_endproc
.LFE7709:
	.size	_ZNSt12_Vector_baseIhSaIhEE19_M_get_Tp_allocatorEv, .-_ZNSt12_Vector_baseIhSaIhEE19_M_get_Tp_allocatorEv
	.section	.text._ZSt8_DestroyIPhhEvT_S1_RSaIT0_E,"axG",@progbits,_ZSt8_DestroyIPhhEvT_S1_RSaIT0_E,comdat
	.weak	_ZSt8_DestroyIPhhEvT_S1_RSaIT0_E
	.type	_ZSt8_DestroyIPhhEvT_S1_RSaIT0_E, @function
_ZSt8_DestroyIPhhEvT_S1_RSaIT0_E:
.LFB7710:
	.cfi_startproc
	endbr64
	push	rbp
	.cfi_def_cfa_offset 16
	.cfi_offset 6, -16
	mov	rbp, rsp
	.cfi_def_cfa_register 6
	sub	rsp, 32
	mov	QWORD PTR -8[rbp], rdi
	mov	QWORD PTR -16[rbp], rsi
	mov	QWORD PTR -24[rbp], rdx
	mov	rdx, QWORD PTR -16[rbp]
	mov	rax, QWORD PTR -8[rbp]
	mov	rsi, rdx
	mov	rdi, rax
	call	_ZSt8_DestroyIPhEvT_S1_
	nop
	leave
	.cfi_def_cfa 7, 8
	ret
	.cfi_endproc
.LFE7710:
	.size	_ZSt8_DestroyIPhhEvT_S1_RSaIT0_E, .-_ZSt8_DestroyIPhhEvT_S1_RSaIT0_E
	.section	.text._ZNKSt6vectorIhSaIhEE4sizeEv,"axG",@progbits,_ZNKSt6vectorIhSaIhEE4sizeEv,comdat
	.align 2
	.weak	_ZNKSt6vectorIhSaIhEE4sizeEv
	.type	_ZNKSt6vectorIhSaIhEE4sizeEv, @function
_ZNKSt6vectorIhSaIhEE4sizeEv:
.LFB7711:
	.cfi_startproc
	endbr64
	push	rbp
	.cfi_def_cfa_offset 16
	.cfi_offset 6, -16
	mov	rbp, rsp
	.cfi_def_cfa_register 6
	mov	QWORD PTR -8[rbp], rdi
	mov	rax, QWORD PTR -8[rbp]
	mov	rdx, QWORD PTR 8[rax]
	mov	rax, QWORD PTR -8[rbp]
	mov	rax, QWORD PTR [rax]
	sub	rdx, rax
	mov	rax, rdx
	pop	rbp
	.cfi_def_cfa 7, 8
	ret
	.cfi_endproc
.LFE7711:
	.size	_ZNKSt6vectorIhSaIhEE4sizeEv, .-_ZNKSt6vectorIhSaIhEE4sizeEv
	.section	.rodata
.LC3:
	.string	"vector::_M_default_append"
	.section	.text._ZNSt6vectorIhSaIhEE17_M_default_appendEm,"axG",@progbits,_ZNSt6vectorIhSaIhEE17_M_default_appendEm,comdat
	.align 2
	.weak	_ZNSt6vectorIhSaIhEE17_M_default_appendEm
	.type	_ZNSt6vectorIhSaIhEE17_M_default_appendEm, @function
_ZNSt6vectorIhSaIhEE17_M_default_appendEm:
.LFB7712:
	.cfi_startproc
	.cfi_personality 0x9b,DW.ref.__gxx_personality_v0
	.cfi_lsda 0x1b,.LLSDA7712
	endbr64
	push	rbp
	.cfi_def_cfa_offset 16
	.cfi_offset 6, -16
	mov	rbp, rsp
	.cfi_def_cfa_register 6
	push	rbx
	sub	rsp, 72
	.cfi_offset 3, -24
	mov	QWORD PTR -72[rbp], rdi
	mov	QWORD PTR -80[rbp], rsi
	cmp	QWORD PTR -80[rbp], 0
	je	.L129
	mov	rax, QWORD PTR -72[rbp]
	mov	rdi, rax
	call	_ZNKSt6vectorIhSaIhEE4sizeEv
	mov	QWORD PTR -64[rbp], rax
	mov	rax, QWORD PTR -72[rbp]
	mov	rdx, QWORD PTR 16[rax]
	mov	rax, QWORD PTR -72[rbp]
	mov	rax, QWORD PTR 8[rax]
	sub	rdx, rax
	mov	QWORD PTR -56[rbp], rdx
	mov	rax, QWORD PTR -72[rbp]
	mov	rdi, rax
	call	_ZNKSt6vectorIhSaIhEE8max_sizeEv
	cmp	rax, QWORD PTR -64[rbp]
	jb	.L120
	mov	rax, QWORD PTR -72[rbp]
	mov	rdi, rax
	call	_ZNKSt6vectorIhSaIhEE8max_sizeEv
	sub	rax, QWORD PTR -64[rbp]
	cmp	rax, QWORD PTR -56[rbp]
	jnb	.L121
.L120:
	mov	eax, 1
	jmp	.L122
.L121:
	mov	eax, 0
.L122:
	test	al, al
	mov	rax, QWORD PTR -56[rbp]
	cmp	rax, QWORD PTR -80[rbp]
	jb	.L124
	mov	rax, QWORD PTR -72[rbp]
	mov	rdi, rax
	call	_ZNSt12_Vector_baseIhSaIhEE19_M_get_Tp_allocatorEv
	mov	rdx, rax
	mov	rax, QWORD PTR -72[rbp]
	mov	rax, QWORD PTR 8[rax]
	mov	rcx, QWORD PTR -80[rbp]
	mov	rsi, rcx
	mov	rdi, rax
.LEHB17:
	call	_ZSt27__uninitialized_default_n_aIPhmhET_S1_T0_RSaIT1_E
	mov	rdx, QWORD PTR -72[rbp]
	mov	QWORD PTR 8[rdx], rax
	jmp	.L129
.L124:
	mov	rax, QWORD PTR -72[rbp]
	mov	rax, QWORD PTR [rax]
	mov	QWORD PTR -48[rbp], rax
	mov	rax, QWORD PTR -72[rbp]
	mov	rax, QWORD PTR 8[rax]
	mov	QWORD PTR -40[rbp], rax
	mov	rcx, QWORD PTR -80[rbp]
	mov	rax, QWORD PTR -72[rbp]
	lea	rdx, .LC3[rip]
	mov	rsi, rcx
	mov	rdi, rax
	call	_ZNKSt6vectorIhSaIhEE12_M_check_lenEmPKc
	mov	QWORD PTR -32[rbp], rax
	mov	rax, QWORD PTR -72[rbp]
	mov	rdx, QWORD PTR -32[rbp]
	mov	rsi, rdx
	mov	rdi, rax
	call	_ZNSt12_Vector_baseIhSaIhEE11_M_allocateEm
.LEHE17:
	mov	QWORD PTR -24[rbp], rax
	mov	rax, QWORD PTR -72[rbp]
	mov	rdi, rax
	call	_ZNSt12_Vector_baseIhSaIhEE19_M_get_Tp_allocatorEv
	mov	rdx, rax
	mov	rcx, QWORD PTR -24[rbp]
	mov	rax, QWORD PTR -64[rbp]
	add	rcx, rax
	mov	rax, QWORD PTR -80[rbp]
	mov	rsi, rax
	mov	rdi, rcx
.LEHB18:
	call	_ZSt27__uninitialized_default_n_aIPhmhET_S1_T0_RSaIT1_E
.LEHE18:
	mov	rax, QWORD PTR -72[rbp]
	mov	rdi, rax
	call	_ZNSt12_Vector_baseIhSaIhEE19_M_get_Tp_allocatorEv
	mov	rcx, rax
	mov	rdx, QWORD PTR -24[rbp]
	mov	rsi, QWORD PTR -40[rbp]
	mov	rax, QWORD PTR -48[rbp]
	mov	rdi, rax
	call	_ZNSt6vectorIhSaIhEE11_S_relocateEPhS2_S2_RS0_
	mov	rax, QWORD PTR -72[rbp]
	mov	rdx, QWORD PTR -72[rbp]
	mov	rdx, QWORD PTR 16[rdx]
	sub	rdx, QWORD PTR -48[rbp]
	mov	rcx, QWORD PTR -48[rbp]
	mov	rsi, rcx
	mov	rdi, rax
.LEHB19:
	call	_ZNSt12_Vector_baseIhSaIhEE13_M_deallocateEPhm
.LEHE19:
	mov	rax, QWORD PTR -72[rbp]
	mov	rdx, QWORD PTR -24[rbp]
	mov	QWORD PTR [rax], rdx
	mov	rdx, QWORD PTR -64[rbp]
	mov	rax, QWORD PTR -80[rbp]
	add	rdx, rax
	mov	rax, QWORD PTR -24[rbp]
	add	rdx, rax
	mov	rax, QWORD PTR -72[rbp]
	mov	QWORD PTR 8[rax], rdx
	mov	rdx, QWORD PTR -24[rbp]
	mov	rax, QWORD PTR -32[rbp]
	add	rdx, rax
	mov	rax, QWORD PTR -72[rbp]
	mov	QWORD PTR 16[rax], rdx
	jmp	.L129
.L127:
	endbr64
	mov	rdi, rax
	call	__cxa_begin_catch@PLT
	mov	rax, QWORD PTR -72[rbp]
	mov	rdx, QWORD PTR -32[rbp]
	mov	rcx, QWORD PTR -24[rbp]
	mov	rsi, rcx
	mov	rdi, rax
.LEHB20:
	call	_ZNSt12_Vector_baseIhSaIhEE13_M_deallocateEPhm
	call	__cxa_rethrow@PLT
.LEHE20:
.L128:
	endbr64
	mov	rbx, rax
	call	__cxa_end_catch@PLT
	mov	rax, rbx
	mov	rdi, rax
.LEHB21:
	call	_Unwind_Resume@PLT
.LEHE21:
.L129:
	nop
	mov	rbx, QWORD PTR -8[rbp]
	leave
	.cfi_def_cfa 7, 8
	ret
	.cfi_endproc
.LFE7712:
	.section	.gcc_except_table
	.align 4
.LLSDA7712:
	.byte	0xff
	.byte	0x9b
	.uleb128 .LLSDATT7712-.LLSDATTD7712
.LLSDATTD7712:
	.byte	0x1
	.uleb128 .LLSDACSE7712-.LLSDACSB7712
.LLSDACSB7712:
	.uleb128 .LEHB17-.LFB7712
	.uleb128 .LEHE17-.LEHB17
	.uleb128 0
	.uleb128 0
	.uleb128 .LEHB18-.LFB7712
	.uleb128 .LEHE18-.LEHB18
	.uleb128 .L127-.LFB7712
	.uleb128 0x1
	.uleb128 .LEHB19-.LFB7712
	.uleb128 .LEHE19-.LEHB19
	.uleb128 0
	.uleb128 0
	.uleb128 .LEHB20-.LFB7712
	.uleb128 .LEHE20-.LEHB20
	.uleb128 .L128-.LFB7712
	.uleb128 0
	.uleb128 .LEHB21-.LFB7712
	.uleb128 .LEHE21-.LEHB21
	.uleb128 0
	.uleb128 0
.LLSDACSE7712:
	.byte	0x1
	.byte	0
	.align 4
	.long	0

.LLSDATT7712:
	.section	.text._ZNSt6vectorIhSaIhEE17_M_default_appendEm,"axG",@progbits,_ZNSt6vectorIhSaIhEE17_M_default_appendEm,comdat
	.size	_ZNSt6vectorIhSaIhEE17_M_default_appendEm, .-_ZNSt6vectorIhSaIhEE17_M_default_appendEm
	.section	.text._ZNSt6vectorIhSaIhEE15_M_erase_at_endEPh,"axG",@progbits,_ZNSt6vectorIhSaIhEE15_M_erase_at_endEPh,comdat
	.align 2
	.weak	_ZNSt6vectorIhSaIhEE15_M_erase_at_endEPh
	.type	_ZNSt6vectorIhSaIhEE15_M_erase_at_endEPh, @function
_ZNSt6vectorIhSaIhEE15_M_erase_at_endEPh:
.LFB7717:
	.cfi_startproc
	.cfi_personality 0x9b,DW.ref.__gxx_personality_v0
	.cfi_lsda 0x1b,.LLSDA7717
	endbr64
	push	rbp
	.cfi_def_cfa_offset 16
	.cfi_offset 6, -16
	mov	rbp, rsp
	.cfi_def_cfa_register 6
	sub	rsp, 32
	mov	QWORD PTR -24[rbp], rdi
	mov	QWORD PTR -32[rbp], rsi
	mov	rax, QWORD PTR -24[rbp]
	mov	rax, QWORD PTR 8[rax]
	sub	rax, QWORD PTR -32[rbp]
	mov	QWORD PTR -8[rbp], rax
	cmp	QWORD PTR -8[rbp], 0
	je	.L132
	mov	rax, QWORD PTR -24[rbp]
	mov	rdi, rax
	call	_ZNSt12_Vector_baseIhSaIhEE19_M_get_Tp_allocatorEv
	mov	rdx, rax
	mov	rax, QWORD PTR -24[rbp]
	mov	rcx, QWORD PTR 8[rax]
	mov	rax, QWORD PTR -32[rbp]
	mov	rsi, rcx
	mov	rdi, rax
	call	_ZSt8_DestroyIPhhEvT_S1_RSaIT0_E
	mov	rax, QWORD PTR -24[rbp]
	mov	rdx, QWORD PTR -32[rbp]
	mov	QWORD PTR 8[rax], rdx
.L132:
	nop
	leave
	.cfi_def_cfa 7, 8
	ret
	.cfi_endproc
.LFE7717:
	.section	.gcc_except_table
.LLSDA7717:
	.byte	0xff
	.byte	0xff
	.byte	0x1
	.uleb128 .LLSDACSE7717-.LLSDACSB7717
.LLSDACSB7717:
.LLSDACSE7717:
	.section	.text._ZNSt6vectorIhSaIhEE15_M_erase_at_endEPh,"axG",@progbits,_ZNSt6vectorIhSaIhEE15_M_erase_at_endEPh,comdat
	.size	_ZNSt6vectorIhSaIhEE15_M_erase_at_endEPh, .-_ZNSt6vectorIhSaIhEE15_M_erase_at_endEPh
	.section	.text._ZNKSt6vectorIhSaIhEE11_M_data_ptrIhEEPT_S4_,"axG",@progbits,_ZNKSt6vectorIhSaIhEE11_M_data_ptrIhEEPT_S4_,comdat
	.align 2
	.weak	_ZNKSt6vectorIhSaIhEE11_M_data_ptrIhEEPT_S4_
	.type	_ZNKSt6vectorIhSaIhEE11_M_data_ptrIhEEPT_S4_, @function
_ZNKSt6vectorIhSaIhEE11_M_data_ptrIhEEPT_S4_:
.LFB7718:
	.cfi_startproc
	endbr64
	push	rbp
	.cfi_def_cfa_offset 16
	.cfi_offset 6, -16
	mov	rbp, rsp
	.cfi_def_cfa_register 6
	mov	QWORD PTR -8[rbp], rdi
	mov	QWORD PTR -16[rbp], rsi
	mov	rax, QWORD PTR -16[rbp]
	pop	rbp
	.cfi_def_cfa 7, 8
	ret
	.cfi_endproc
.LFE7718:
	.size	_ZNKSt6vectorIhSaIhEE11_M_data_ptrIhEEPT_S4_, .-_ZNKSt6vectorIhSaIhEE11_M_data_ptrIhEEPT_S4_
	.section	.text._ZNSt15__new_allocatorISt4pairIKNSt7__cxx1112basic_stringIcSt11char_traitsIcESaIcEEEPFvvEEEC2Ev,"axG",@progbits,_ZNSt15__new_allocatorISt4pairIKNSt7__cxx1112basic_stringIcSt11char_traitsIcESaIcEEEPFvvEEEC5Ev,comdat
	.align 2
	.weak	_ZNSt15__new_allocatorISt4pairIKNSt7__cxx1112basic_stringIcSt11char_traitsIcESaIcEEEPFvvEEEC2Ev
	.type	_ZNSt15__new_allocatorISt4pairIKNSt7__cxx1112basic_stringIcSt11char_traitsIcESaIcEEEPFvvEEEC2Ev, @function
_ZNSt15__new_allocatorISt4pairIKNSt7__cxx1112basic_stringIcSt11char_traitsIcESaIcEEEPFvvEEEC2Ev:
.LFB7727:
	.cfi_startproc
	endbr64
	push	rbp
	.cfi_def_cfa_offset 16
	.cfi_offset 6, -16
	mov	rbp, rsp
	.cfi_def_cfa_register 6
	mov	QWORD PTR -8[rbp], rdi
	nop
	pop	rbp
	.cfi_def_cfa 7, 8
	ret
	.cfi_endproc
.LFE7727:
	.size	_ZNSt15__new_allocatorISt4pairIKNSt7__cxx1112basic_stringIcSt11char_traitsIcESaIcEEEPFvvEEEC2Ev, .-_ZNSt15__new_allocatorISt4pairIKNSt7__cxx1112basic_stringIcSt11char_traitsIcESaIcEEEPFvvEEEC2Ev
	.weak	_ZNSt15__new_allocatorISt4pairIKNSt7__cxx1112basic_stringIcSt11char_traitsIcESaIcEEEPFvvEEEC1Ev
	.set	_ZNSt15__new_allocatorISt4pairIKNSt7__cxx1112basic_stringIcSt11char_traitsIcESaIcEEEPFvvEEEC1Ev,_ZNSt15__new_allocatorISt4pairIKNSt7__cxx1112basic_stringIcSt11char_traitsIcESaIcEEEPFvvEEEC2Ev
	.section	.text._ZNSt15__new_allocatorISt4pairIKNSt7__cxx1112basic_stringIcSt11char_traitsIcESaIcEEEPFvvEEED2Ev,"axG",@progbits,_ZNSt15__new_allocatorISt4pairIKNSt7__cxx1112basic_stringIcSt11char_traitsIcESaIcEEEPFvvEEED5Ev,comdat
	.align 2
	.weak	_ZNSt15__new_allocatorISt4pairIKNSt7__cxx1112basic_stringIcSt11char_traitsIcESaIcEEEPFvvEEED2Ev
	.type	_ZNSt15__new_allocatorISt4pairIKNSt7__cxx1112basic_stringIcSt11char_traitsIcESaIcEEEPFvvEEED2Ev, @function
_ZNSt15__new_allocatorISt4pairIKNSt7__cxx1112basic_stringIcSt11char_traitsIcESaIcEEEPFvvEEED2Ev:
.LFB7730:
	.cfi_startproc
	endbr64
	push	rbp
	.cfi_def_cfa_offset 16
	.cfi_offset 6, -16
	mov	rbp, rsp
	.cfi_def_cfa_register 6
	mov	QWORD PTR -8[rbp], rdi
	nop
	pop	rbp
	.cfi_def_cfa 7, 8
	ret
	.cfi_endproc
.LFE7730:
	.size	_ZNSt15__new_allocatorISt4pairIKNSt7__cxx1112basic_stringIcSt11char_traitsIcESaIcEEEPFvvEEED2Ev, .-_ZNSt15__new_allocatorISt4pairIKNSt7__cxx1112basic_stringIcSt11char_traitsIcESaIcEEEPFvvEEED2Ev
	.weak	_ZNSt15__new_allocatorISt4pairIKNSt7__cxx1112basic_stringIcSt11char_traitsIcESaIcEEEPFvvEEED1Ev
	.set	_ZNSt15__new_allocatorISt4pairIKNSt7__cxx1112basic_stringIcSt11char_traitsIcESaIcEEEPFvvEEED1Ev,_ZNSt15__new_allocatorISt4pairIKNSt7__cxx1112basic_stringIcSt11char_traitsIcESaIcEEEPFvvEEED2Ev
	.section	.text._ZNSaISt4pairIKNSt7__cxx1112basic_stringIcSt11char_traitsIcESaIcEEEPFvvEEEC2ERKSA_,"axG",@progbits,_ZNSaISt4pairIKNSt7__cxx1112basic_stringIcSt11char_traitsIcESaIcEEEPFvvEEEC5ERKSA_,comdat
	.align 2
	.weak	_ZNSaISt4pairIKNSt7__cxx1112basic_stringIcSt11char_traitsIcESaIcEEEPFvvEEEC2ERKSA_
	.type	_ZNSaISt4pairIKNSt7__cxx1112basic_stringIcSt11char_traitsIcESaIcEEEPFvvEEEC2ERKSA_, @function
_ZNSaISt4pairIKNSt7__cxx1112basic_stringIcSt11char_traitsIcESaIcEEEPFvvEEEC2ERKSA_:
.LFB7733:
	.cfi_startproc
	endbr64
	push	rbp
	.cfi_def_cfa_offset 16
	.cfi_offset 6, -16
	mov	rbp, rsp
	.cfi_def_cfa_register 6
	sub	rsp, 16
	mov	QWORD PTR -8[rbp], rdi
	mov	QWORD PTR -16[rbp], rsi
	mov	rdx, QWORD PTR -16[rbp]
	mov	rax, QWORD PTR -8[rbp]
	mov	rsi, rdx
	mov	rdi, rax
	call	_ZNSt15__new_allocatorISt4pairIKNSt7__cxx1112basic_stringIcSt11char_traitsIcESaIcEEEPFvvEEEC2ERKSB_
	nop
	leave
	.cfi_def_cfa 7, 8
	ret
	.cfi_endproc
.LFE7733:
	.size	_ZNSaISt4pairIKNSt7__cxx1112basic_stringIcSt11char_traitsIcESaIcEEEPFvvEEEC2ERKSA_, .-_ZNSaISt4pairIKNSt7__cxx1112basic_stringIcSt11char_traitsIcESaIcEEEPFvvEEEC2ERKSA_
	.weak	_ZNSaISt4pairIKNSt7__cxx1112basic_stringIcSt11char_traitsIcESaIcEEEPFvvEEEC1ERKSA_
	.set	_ZNSaISt4pairIKNSt7__cxx1112basic_stringIcSt11char_traitsIcESaIcEEEPFvvEEEC1ERKSA_,_ZNSaISt4pairIKNSt7__cxx1112basic_stringIcSt11char_traitsIcESaIcEEEPFvvEEEC2ERKSA_
	.section	.text._ZNSt8_Rb_treeINSt7__cxx1112basic_stringIcSt11char_traitsIcESaIcEEESt4pairIKS5_PFvvEESt10_Select1stISA_ESt4lessIS5_ESaISA_EE13_Rb_tree_implISE_Lb1EED2Ev,"axG",@progbits,_ZNSt8_Rb_treeINSt7__cxx1112basic_stringIcSt11char_traitsIcESaIcEEESt4pairIKS5_PFvvEESt10_Select1stISA_ESt4lessIS5_ESaISA_EE13_Rb_tree_implISE_Lb1EED5Ev,comdat
	.align 2
	.weak	_ZNSt8_Rb_treeINSt7__cxx1112basic_stringIcSt11char_traitsIcESaIcEEESt4pairIKS5_PFvvEESt10_Select1stISA_ESt4lessIS5_ESaISA_EE13_Rb_tree_implISE_Lb1EED2Ev
	.type	_ZNSt8_Rb_treeINSt7__cxx1112basic_stringIcSt11char_traitsIcESaIcEEESt4pairIKS5_PFvvEESt10_Select1stISA_ESt4lessIS5_ESaISA_EE13_Rb_tree_implISE_Lb1EED2Ev, @function
_ZNSt8_Rb_treeINSt7__cxx1112basic_stringIcSt11char_traitsIcESaIcEEESt4pairIKS5_PFvvEESt10_Select1stISA_ESt4lessIS5_ESaISA_EE13_Rb_tree_implISE_Lb1EED2Ev:
.LFB7737:
	.cfi_startproc
	endbr64
	push	rbp
	.cfi_def_cfa_offset 16
	.cfi_offset 6, -16
	mov	rbp, rsp
	.cfi_def_cfa_register 6
	sub	rsp, 16
	mov	QWORD PTR -8[rbp], rdi
	mov	rax, QWORD PTR -8[rbp]
	mov	rdi, rax
	call	_ZNSaISt13_Rb_tree_nodeISt4pairIKNSt7__cxx1112basic_stringIcSt11char_traitsIcESaIcEEEPFvvEEEED2Ev
	nop
	leave
	.cfi_def_cfa 7, 8
	ret
	.cfi_endproc
.LFE7737:
	.size	_ZNSt8_Rb_treeINSt7__cxx1112basic_stringIcSt11char_traitsIcESaIcEEESt4pairIKS5_PFvvEESt10_Select1stISA_ESt4lessIS5_ESaISA_EE13_Rb_tree_implISE_Lb1EED2Ev, .-_ZNSt8_Rb_treeINSt7__cxx1112basic_stringIcSt11char_traitsIcESaIcEEESt4pairIKS5_PFvvEESt10_Select1stISA_ESt4lessIS5_ESaISA_EE13_Rb_tree_implISE_Lb1EED2Ev
	.weak	_ZNSt8_Rb_treeINSt7__cxx1112basic_stringIcSt11char_traitsIcESaIcEEESt4pairIKS5_PFvvEESt10_Select1stISA_ESt4lessIS5_ESaISA_EE13_Rb_tree_implISE_Lb1EED1Ev
	.set	_ZNSt8_Rb_treeINSt7__cxx1112basic_stringIcSt11char_traitsIcESaIcEEESt4pairIKS5_PFvvEESt10_Select1stISA_ESt4lessIS5_ESaISA_EE13_Rb_tree_implISE_Lb1EED1Ev,_ZNSt8_Rb_treeINSt7__cxx1112basic_stringIcSt11char_traitsIcESaIcEEESt4pairIKS5_PFvvEESt10_Select1stISA_ESt4lessIS5_ESaISA_EE13_Rb_tree_implISE_Lb1EED2Ev
	.section	.text._ZNSt8_Rb_treeINSt7__cxx1112basic_stringIcSt11char_traitsIcESaIcEEESt4pairIKS5_PFvvEESt10_Select1stISA_ESt4lessIS5_ESaISA_EEC2ERKSE_RKSF_,"axG",@progbits,_ZNSt8_Rb_treeINSt7__cxx1112basic_stringIcSt11char_traitsIcESaIcEEESt4pairIKS5_PFvvEESt10_Select1stISA_ESt4lessIS5_ESaISA_EEC5ERKSE_RKSF_,comdat
	.align 2
	.weak	_ZNSt8_Rb_treeINSt7__cxx1112basic_stringIcSt11char_traitsIcESaIcEEESt4pairIKS5_PFvvEESt10_Select1stISA_ESt4lessIS5_ESaISA_EEC2ERKSE_RKSF_
	.type	_ZNSt8_Rb_treeINSt7__cxx1112basic_stringIcSt11char_traitsIcESaIcEEESt4pairIKS5_PFvvEESt10_Select1stISA_ESt4lessIS5_ESaISA_EEC2ERKSE_RKSF_, @function
_ZNSt8_Rb_treeINSt7__cxx1112basic_stringIcSt11char_traitsIcESaIcEEESt4pairIKS5_PFvvEESt10_Select1stISA_ESt4lessIS5_ESaISA_EEC2ERKSE_RKSF_:
.LFB7739:
	.cfi_startproc
	.cfi_personality 0x9b,DW.ref.__gxx_personality_v0
	.cfi_lsda 0x1b,.LLSDA7739
	endbr64
	push	rbp
	.cfi_def_cfa_offset 16
	.cfi_offset 6, -16
	mov	rbp, rsp
	.cfi_def_cfa_register 6
	push	rbx
	sub	rsp, 56
	.cfi_offset 3, -24
	mov	QWORD PTR -40[rbp], rdi
	mov	QWORD PTR -48[rbp], rsi
	mov	QWORD PTR -56[rbp], rdx
	mov	rax, QWORD PTR fs:40
	mov	QWORD PTR -24[rbp], rax
	xor	eax, eax
	mov	rbx, QWORD PTR -40[rbp]
	mov	rdx, QWORD PTR -56[rbp]
	lea	rax, -25[rbp]
	mov	rsi, rdx
	mov	rdi, rax
	call	_ZNSaISt13_Rb_tree_nodeISt4pairIKNSt7__cxx1112basic_stringIcSt11char_traitsIcESaIcEEEPFvvEEEEC1ISA_EERKSaIT_E
	lea	rdx, -25[rbp]
	mov	rax, QWORD PTR -48[rbp]
	mov	rsi, rax
	mov	rdi, rbx
.LEHB22:
	call	_ZNSt8_Rb_treeINSt7__cxx1112basic_stringIcSt11char_traitsIcESaIcEEESt4pairIKS5_PFvvEESt10_Select1stISA_ESt4lessIS5_ESaISA_EE13_Rb_tree_implISE_Lb1EEC1ERKSE_OSaISt13_Rb_tree_nodeISA_EE
.LEHE22:
	lea	rax, -25[rbp]
	mov	rdi, rax
	call	_ZNSaISt13_Rb_tree_nodeISt4pairIKNSt7__cxx1112basic_stringIcSt11char_traitsIcESaIcEEEPFvvEEEED1Ev
	nop
	mov	rax, QWORD PTR -24[rbp]
	sub	rax, QWORD PTR fs:40
	je	.L141
	jmp	.L143
.L142:
	endbr64
	mov	rbx, rax
	lea	rax, -25[rbp]
	mov	rdi, rax
	call	_ZNSaISt13_Rb_tree_nodeISt4pairIKNSt7__cxx1112basic_stringIcSt11char_traitsIcESaIcEEEPFvvEEEED1Ev
	mov	rax, rbx
	mov	rdi, rax
.LEHB23:
	call	_Unwind_Resume@PLT
.LEHE23:
.L143:
	call	__stack_chk_fail@PLT
.L141:
	mov	rbx, QWORD PTR -8[rbp]
	leave
	.cfi_def_cfa 7, 8
	ret
	.cfi_endproc
.LFE7739:
	.section	.gcc_except_table
.LLSDA7739:
	.byte	0xff
	.byte	0xff
	.byte	0x1
	.uleb128 .LLSDACSE7739-.LLSDACSB7739
.LLSDACSB7739:
	.uleb128 .LEHB22-.LFB7739
	.uleb128 .LEHE22-.LEHB22
	.uleb128 .L142-.LFB7739
	.uleb128 0
	.uleb128 .LEHB23-.LFB7739
	.uleb128 .LEHE23-.LEHB23
	.uleb128 0
	.uleb128 0
.LLSDACSE7739:
	.section	.text._ZNSt8_Rb_treeINSt7__cxx1112basic_stringIcSt11char_traitsIcESaIcEEESt4pairIKS5_PFvvEESt10_Select1stISA_ESt4lessIS5_ESaISA_EEC2ERKSE_RKSF_,"axG",@progbits,_ZNSt8_Rb_treeINSt7__cxx1112basic_stringIcSt11char_traitsIcESaIcEEESt4pairIKS5_PFvvEESt10_Select1stISA_ESt4lessIS5_ESaISA_EEC5ERKSE_RKSF_,comdat
	.size	_ZNSt8_Rb_treeINSt7__cxx1112basic_stringIcSt11char_traitsIcESaIcEEESt4pairIKS5_PFvvEESt10_Select1stISA_ESt4lessIS5_ESaISA_EEC2ERKSE_RKSF_, .-_ZNSt8_Rb_treeINSt7__cxx1112basic_stringIcSt11char_traitsIcESaIcEEESt4pairIKS5_PFvvEESt10_Select1stISA_ESt4lessIS5_ESaISA_EEC2ERKSE_RKSF_
	.weak	_ZNSt8_Rb_treeINSt7__cxx1112basic_stringIcSt11char_traitsIcESaIcEEESt4pairIKS5_PFvvEESt10_Select1stISA_ESt4lessIS5_ESaISA_EEC1ERKSE_RKSF_
	.set	_ZNSt8_Rb_treeINSt7__cxx1112basic_stringIcSt11char_traitsIcESaIcEEESt4pairIKS5_PFvvEESt10_Select1stISA_ESt4lessIS5_ESaISA_EEC1ERKSE_RKSF_,_ZNSt8_Rb_treeINSt7__cxx1112basic_stringIcSt11char_traitsIcESaIcEEESt4pairIKS5_PFvvEESt10_Select1stISA_ESt4lessIS5_ESaISA_EEC2ERKSE_RKSF_
	.section	.text._ZNSt8_Rb_treeINSt7__cxx1112basic_stringIcSt11char_traitsIcESaIcEEESt4pairIKS5_PFvvEESt10_Select1stISA_ESt4lessIS5_ESaISA_EED2Ev,"axG",@progbits,_ZNSt8_Rb_treeINSt7__cxx1112basic_stringIcSt11char_traitsIcESaIcEEESt4pairIKS5_PFvvEESt10_Select1stISA_ESt4lessIS5_ESaISA_EED5Ev,comdat
	.align 2
	.weak	_ZNSt8_Rb_treeINSt7__cxx1112basic_stringIcSt11char_traitsIcESaIcEEESt4pairIKS5_PFvvEESt10_Select1stISA_ESt4lessIS5_ESaISA_EED2Ev
	.type	_ZNSt8_Rb_treeINSt7__cxx1112basic_stringIcSt11char_traitsIcESaIcEEESt4pairIKS5_PFvvEESt10_Select1stISA_ESt4lessIS5_ESaISA_EED2Ev, @function
_ZNSt8_Rb_treeINSt7__cxx1112basic_stringIcSt11char_traitsIcESaIcEEESt4pairIKS5_PFvvEESt10_Select1stISA_ESt4lessIS5_ESaISA_EED2Ev:
.LFB7742:
	.cfi_startproc
	.cfi_personality 0x9b,DW.ref.__gxx_personality_v0
	.cfi_lsda 0x1b,.LLSDA7742
	endbr64
	push	rbp
	.cfi_def_cfa_offset 16
	.cfi_offset 6, -16
	mov	rbp, rsp
	.cfi_def_cfa_register 6
	sub	rsp, 16
	mov	QWORD PTR -8[rbp], rdi
	mov	rax, QWORD PTR -8[rbp]
	mov	rdi, rax
	call	_ZNSt8_Rb_treeINSt7__cxx1112basic_stringIcSt11char_traitsIcESaIcEEESt4pairIKS5_PFvvEESt10_Select1stISA_ESt4lessIS5_ESaISA_EE8_M_beginEv
	mov	rdx, rax
	mov	rax, QWORD PTR -8[rbp]
	mov	rsi, rdx
	mov	rdi, rax
	call	_ZNSt8_Rb_treeINSt7__cxx1112basic_stringIcSt11char_traitsIcESaIcEEESt4pairIKS5_PFvvEESt10_Select1stISA_ESt4lessIS5_ESaISA_EE8_M_eraseEPSt13_Rb_tree_nodeISA_E
	mov	rax, QWORD PTR -8[rbp]
	mov	rdi, rax
	call	_ZNSt8_Rb_treeINSt7__cxx1112basic_stringIcSt11char_traitsIcESaIcEEESt4pairIKS5_PFvvEESt10_Select1stISA_ESt4lessIS5_ESaISA_EE13_Rb_tree_implISE_Lb1EED1Ev
	nop
	leave
	.cfi_def_cfa 7, 8
	ret
	.cfi_endproc
.LFE7742:
	.section	.gcc_except_table
.LLSDA7742:
	.byte	0xff
	.byte	0xff
	.byte	0x1
	.uleb128 .LLSDACSE7742-.LLSDACSB7742
.LLSDACSB7742:
.LLSDACSE7742:
	.section	.text._ZNSt8_Rb_treeINSt7__cxx1112basic_stringIcSt11char_traitsIcESaIcEEESt4pairIKS5_PFvvEESt10_Select1stISA_ESt4lessIS5_ESaISA_EED2Ev,"axG",@progbits,_ZNSt8_Rb_treeINSt7__cxx1112basic_stringIcSt11char_traitsIcESaIcEEESt4pairIKS5_PFvvEESt10_Select1stISA_ESt4lessIS5_ESaISA_EED5Ev,comdat
	.size	_ZNSt8_Rb_treeINSt7__cxx1112basic_stringIcSt11char_traitsIcESaIcEEESt4pairIKS5_PFvvEESt10_Select1stISA_ESt4lessIS5_ESaISA_EED2Ev, .-_ZNSt8_Rb_treeINSt7__cxx1112basic_stringIcSt11char_traitsIcESaIcEEESt4pairIKS5_PFvvEESt10_Select1stISA_ESt4lessIS5_ESaISA_EED2Ev
	.weak	_ZNSt8_Rb_treeINSt7__cxx1112basic_stringIcSt11char_traitsIcESaIcEEESt4pairIKS5_PFvvEESt10_Select1stISA_ESt4lessIS5_ESaISA_EED1Ev
	.set	_ZNSt8_Rb_treeINSt7__cxx1112basic_stringIcSt11char_traitsIcESaIcEEESt4pairIKS5_PFvvEESt10_Select1stISA_ESt4lessIS5_ESaISA_EED1Ev,_ZNSt8_Rb_treeINSt7__cxx1112basic_stringIcSt11char_traitsIcESaIcEEESt4pairIKS5_PFvvEESt10_Select1stISA_ESt4lessIS5_ESaISA_EED2Ev
	.section	.text._ZNKSt16initializer_listISt4pairIKNSt7__cxx1112basic_stringIcSt11char_traitsIcESaIcEEEPFvvEEE5beginEv,"axG",@progbits,_ZNKSt16initializer_listISt4pairIKNSt7__cxx1112basic_stringIcSt11char_traitsIcESaIcEEEPFvvEEE5beginEv,comdat
	.align 2
	.weak	_ZNKSt16initializer_listISt4pairIKNSt7__cxx1112basic_stringIcSt11char_traitsIcESaIcEEEPFvvEEE5beginEv
	.type	_ZNKSt16initializer_listISt4pairIKNSt7__cxx1112basic_stringIcSt11char_traitsIcESaIcEEEPFvvEEE5beginEv, @function
_ZNKSt16initializer_listISt4pairIKNSt7__cxx1112basic_stringIcSt11char_traitsIcESaIcEEEPFvvEEE5beginEv:
.LFB7744:
	.cfi_startproc
	endbr64
	push	rbp
	.cfi_def_cfa_offset 16
	.cfi_offset 6, -16
	mov	rbp, rsp
	.cfi_def_cfa_register 6
	mov	QWORD PTR -8[rbp], rdi
	mov	rax, QWORD PTR -8[rbp]
	mov	rax, QWORD PTR [rax]
	pop	rbp
	.cfi_def_cfa 7, 8
	ret
	.cfi_endproc
.LFE7744:
	.size	_ZNKSt16initializer_listISt4pairIKNSt7__cxx1112basic_stringIcSt11char_traitsIcESaIcEEEPFvvEEE5beginEv, .-_ZNKSt16initializer_listISt4pairIKNSt7__cxx1112basic_stringIcSt11char_traitsIcESaIcEEEPFvvEEE5beginEv
	.section	.text._ZNKSt16initializer_listISt4pairIKNSt7__cxx1112basic_stringIcSt11char_traitsIcESaIcEEEPFvvEEE3endEv,"axG",@progbits,_ZNKSt16initializer_listISt4pairIKNSt7__cxx1112basic_stringIcSt11char_traitsIcESaIcEEEPFvvEEE3endEv,comdat
	.align 2
	.weak	_ZNKSt16initializer_listISt4pairIKNSt7__cxx1112basic_stringIcSt11char_traitsIcESaIcEEEPFvvEEE3endEv
	.type	_ZNKSt16initializer_listISt4pairIKNSt7__cxx1112basic_stringIcSt11char_traitsIcESaIcEEEPFvvEEE3endEv, @function
_ZNKSt16initializer_listISt4pairIKNSt7__cxx1112basic_stringIcSt11char_traitsIcESaIcEEEPFvvEEE3endEv:
.LFB7745:
	.cfi_startproc
	endbr64
	push	rbp
	.cfi_def_cfa_offset 16
	.cfi_offset 6, -16
	mov	rbp, rsp
	.cfi_def_cfa_register 6
	push	rbx
	sub	rsp, 24
	.cfi_offset 3, -24
	mov	QWORD PTR -24[rbp], rdi
	mov	rax, QWORD PTR -24[rbp]
	mov	rdi, rax
	call	_ZNKSt16initializer_listISt4pairIKNSt7__cxx1112basic_stringIcSt11char_traitsIcESaIcEEEPFvvEEE5beginEv
	mov	rbx, rax
	mov	rax, QWORD PTR -24[rbp]
	mov	rdi, rax
	call	_ZNKSt16initializer_listISt4pairIKNSt7__cxx1112basic_stringIcSt11char_traitsIcESaIcEEEPFvvEEE4sizeEv
	mov	rdx, rax
	mov	rax, rdx
	sal	rax, 2
	add	rax, rdx
	sal	rax, 3
	add	rax, rbx
	mov	rbx, QWORD PTR -8[rbp]
	leave
	.cfi_def_cfa 7, 8
	ret
	.cfi_endproc
.LFE7745:
	.size	_ZNKSt16initializer_listISt4pairIKNSt7__cxx1112basic_stringIcSt11char_traitsIcESaIcEEEPFvvEEE3endEv, .-_ZNKSt16initializer_listISt4pairIKNSt7__cxx1112basic_stringIcSt11char_traitsIcESaIcEEEPFvvEEE3endEv
	.section	.text._ZNSt8_Rb_treeINSt7__cxx1112basic_stringIcSt11char_traitsIcESaIcEEESt4pairIKS5_PFvvEESt10_Select1stISA_ESt4lessIS5_ESaISA_EE22_M_insert_range_uniqueIPKSA_EENSt9enable_ifIXsrSt7is_sameISA_NSt15iterator_traitsIT_E10value_typeEE5valueEvE4typeESN_SN_,"axG",@progbits,_ZNSt8_Rb_treeINSt7__cxx1112basic_stringIcSt11char_traitsIcESaIcEEESt4pairIKS5_PFvvEESt10_Select1stISA_ESt4lessIS5_ESaISA_EE22_M_insert_range_uniqueIPKSA_EENSt9enable_ifIXsrSt7is_sameISA_NSt15iterator_traitsIT_E10value_typeEE5valueEvE4typeESN_SN_,comdat
	.align 2
	.weak	_ZNSt8_Rb_treeINSt7__cxx1112basic_stringIcSt11char_traitsIcESaIcEEESt4pairIKS5_PFvvEESt10_Select1stISA_ESt4lessIS5_ESaISA_EE22_M_insert_range_uniqueIPKSA_EENSt9enable_ifIXsrSt7is_sameISA_NSt15iterator_traitsIT_E10value_typeEE5valueEvE4typeESN_SN_
	.type	_ZNSt8_Rb_treeINSt7__cxx1112basic_stringIcSt11char_traitsIcESaIcEEESt4pairIKS5_PFvvEESt10_Select1stISA_ESt4lessIS5_ESaISA_EE22_M_insert_range_uniqueIPKSA_EENSt9enable_ifIXsrSt7is_sameISA_NSt15iterator_traitsIT_E10value_typeEE5valueEvE4typeESN_SN_, @function
_ZNSt8_Rb_treeINSt7__cxx1112basic_stringIcSt11char_traitsIcESaIcEEESt4pairIKS5_PFvvEESt10_Select1stISA_ESt4lessIS5_ESaISA_EE22_M_insert_range_uniqueIPKSA_EENSt9enable_ifIXsrSt7is_sameISA_NSt15iterator_traitsIT_E10value_typeEE5valueEvE4typeESN_SN_:
.LFB7746:
	.cfi_startproc
	endbr64
	push	rbp
	.cfi_def_cfa_offset 16
	.cfi_offset 6, -16
	mov	rbp, rsp
	.cfi_def_cfa_register 6
	sub	rsp, 64
	mov	QWORD PTR -40[rbp], rdi
	mov	QWORD PTR -48[rbp], rsi
	mov	QWORD PTR -56[rbp], rdx
	mov	rax, QWORD PTR fs:40
	mov	QWORD PTR -8[rbp], rax
	xor	eax, eax
	mov	rdx, QWORD PTR -40[rbp]
	lea	rax, -32[rbp]
	mov	rsi, rdx
	mov	rdi, rax
	call	_ZNSt8_Rb_treeINSt7__cxx1112basic_stringIcSt11char_traitsIcESaIcEEESt4pairIKS5_PFvvEESt10_Select1stISA_ESt4lessIS5_ESaISA_EE11_Alloc_nodeC1ERSG_
	jmp	.L150
.L151:
	mov	rax, QWORD PTR -40[rbp]
	mov	rdi, rax
	call	_ZNSt8_Rb_treeINSt7__cxx1112basic_stringIcSt11char_traitsIcESaIcEEESt4pairIKS5_PFvvEESt10_Select1stISA_ESt4lessIS5_ESaISA_EE3endEv
	mov	QWORD PTR -24[rbp], rax
	lea	rdx, -24[rbp]
	lea	rax, -16[rbp]
	mov	rsi, rdx
	mov	rdi, rax
	call	_ZNSt23_Rb_tree_const_iteratorISt4pairIKNSt7__cxx1112basic_stringIcSt11char_traitsIcESaIcEEEPFvvEEEC1ERKSt17_Rb_tree_iteratorISA_E
	lea	rcx, -32[rbp]
	mov	rdx, QWORD PTR -48[rbp]
	mov	rsi, QWORD PTR -16[rbp]
	mov	rax, QWORD PTR -40[rbp]
	mov	rdi, rax
	call	_ZNSt8_Rb_treeINSt7__cxx1112basic_stringIcSt11char_traitsIcESaIcEEESt4pairIKS5_PFvvEESt10_Select1stISA_ESt4lessIS5_ESaISA_EE17_M_insert_unique_IRKSA_NSG_11_Alloc_nodeEEESt17_Rb_tree_iteratorISA_ESt23_Rb_tree_const_iteratorISA_EOT_RT0_
	add	QWORD PTR -48[rbp], 40
.L150:
	mov	rax, QWORD PTR -48[rbp]
	cmp	rax, QWORD PTR -56[rbp]
	jne	.L151
	nop
	mov	rax, QWORD PTR -8[rbp]
	sub	rax, QWORD PTR fs:40
	je	.L152
	call	__stack_chk_fail@PLT
.L152:
	leave
	.cfi_def_cfa 7, 8
	ret
	.cfi_endproc
.LFE7746:
	.size	_ZNSt8_Rb_treeINSt7__cxx1112basic_stringIcSt11char_traitsIcESaIcEEESt4pairIKS5_PFvvEESt10_Select1stISA_ESt4lessIS5_ESaISA_EE22_M_insert_range_uniqueIPKSA_EENSt9enable_ifIXsrSt7is_sameISA_NSt15iterator_traitsIT_E10value_typeEE5valueEvE4typeESN_SN_, .-_ZNSt8_Rb_treeINSt7__cxx1112basic_stringIcSt11char_traitsIcESaIcEEESt4pairIKS5_PFvvEESt10_Select1stISA_ESt4lessIS5_ESaISA_EE22_M_insert_range_uniqueIPKSA_EENSt9enable_ifIXsrSt7is_sameISA_NSt15iterator_traitsIT_E10value_typeEE5valueEvE4typeESN_SN_
	.section	.text._ZSt8distanceIPKcENSt15iterator_traitsIT_E15difference_typeES3_S3_,"axG",@progbits,_ZSt8distanceIPKcENSt15iterator_traitsIT_E15difference_typeES3_S3_,comdat
	.weak	_ZSt8distanceIPKcENSt15iterator_traitsIT_E15difference_typeES3_S3_
	.type	_ZSt8distanceIPKcENSt15iterator_traitsIT_E15difference_typeES3_S3_, @function
_ZSt8distanceIPKcENSt15iterator_traitsIT_E15difference_typeES3_S3_:
.LFB7771:
	.cfi_startproc
	endbr64
	push	rbp
	.cfi_def_cfa_offset 16
	.cfi_offset 6, -16
	mov	rbp, rsp
	.cfi_def_cfa_register 6
	sub	rsp, 16
	mov	QWORD PTR -8[rbp], rdi
	mov	QWORD PTR -16[rbp], rsi
	lea	rax, -8[rbp]
	mov	rdi, rax
	call	_ZSt19__iterator_categoryIPKcENSt15iterator_traitsIT_E17iterator_categoryERKS3_
	mov	rax, QWORD PTR -8[rbp]
	mov	rdx, QWORD PTR -16[rbp]
	mov	rsi, rdx
	mov	rdi, rax
	call	_ZSt10__distanceIPKcENSt15iterator_traitsIT_E15difference_typeES3_S3_St26random_access_iterator_tag
	leave
	.cfi_def_cfa 7, 8
	ret
	.cfi_endproc
.LFE7771:
	.size	_ZSt8distanceIPKcENSt15iterator_traitsIT_E15difference_typeES3_S3_, .-_ZSt8distanceIPKcENSt15iterator_traitsIT_E15difference_typeES3_S3_
	.section	.text._ZNSt15__new_allocatorIhEC2Ev,"axG",@progbits,_ZNSt15__new_allocatorIhEC5Ev,comdat
	.align 2
	.weak	_ZNSt15__new_allocatorIhEC2Ev
	.type	_ZNSt15__new_allocatorIhEC2Ev, @function
_ZNSt15__new_allocatorIhEC2Ev:
.LFB7811:
	.cfi_startproc
	endbr64
	push	rbp
	.cfi_def_cfa_offset 16
	.cfi_offset 6, -16
	mov	rbp, rsp
	.cfi_def_cfa_register 6
	mov	QWORD PTR -8[rbp], rdi
	nop
	pop	rbp
	.cfi_def_cfa 7, 8
	ret
	.cfi_endproc
.LFE7811:
	.size	_ZNSt15__new_allocatorIhEC2Ev, .-_ZNSt15__new_allocatorIhEC2Ev
	.weak	_ZNSt15__new_allocatorIhEC1Ev
	.set	_ZNSt15__new_allocatorIhEC1Ev,_ZNSt15__new_allocatorIhEC2Ev
	.section	.text._ZNSt16allocator_traitsISaIhEE10deallocateERS0_Phm,"axG",@progbits,_ZNSt16allocator_traitsISaIhEE10deallocateERS0_Phm,comdat
	.weak	_ZNSt16allocator_traitsISaIhEE10deallocateERS0_Phm
	.type	_ZNSt16allocator_traitsISaIhEE10deallocateERS0_Phm, @function
_ZNSt16allocator_traitsISaIhEE10deallocateERS0_Phm:
.LFB7813:
	.cfi_startproc
	endbr64
	push	rbp
	.cfi_def_cfa_offset 16
	.cfi_offset 6, -16
	mov	rbp, rsp
	.cfi_def_cfa_register 6
	sub	rsp, 32
	mov	QWORD PTR -8[rbp], rdi
	mov	QWORD PTR -16[rbp], rsi
	mov	QWORD PTR -24[rbp], rdx
	mov	rdx, QWORD PTR -24[rbp]
	mov	rcx, QWORD PTR -16[rbp]
	mov	rax, QWORD PTR -8[rbp]
	mov	rsi, rcx
	mov	rdi, rax
	call	_ZNSt15__new_allocatorIhE10deallocateEPhm
	nop
	leave
	.cfi_def_cfa 7, 8
	ret
	.cfi_endproc
.LFE7813:
	.size	_ZNSt16allocator_traitsISaIhEE10deallocateERS0_Phm, .-_ZNSt16allocator_traitsISaIhEE10deallocateERS0_Phm
	.section	.text._ZSt8_DestroyIPhEvT_S1_,"axG",@progbits,_ZSt8_DestroyIPhEvT_S1_,comdat
	.weak	_ZSt8_DestroyIPhEvT_S1_
	.type	_ZSt8_DestroyIPhEvT_S1_, @function
_ZSt8_DestroyIPhEvT_S1_:
.LFB7814:
	.cfi_startproc
	endbr64
	push	rbp
	.cfi_def_cfa_offset 16
	.cfi_offset 6, -16
	mov	rbp, rsp
	.cfi_def_cfa_register 6
	sub	rsp, 16
	mov	QWORD PTR -8[rbp], rdi
	mov	QWORD PTR -16[rbp], rsi
	mov	rdx, QWORD PTR -16[rbp]
	mov	rax, QWORD PTR -8[rbp]
	mov	rsi, rdx
	mov	rdi, rax
	call	_ZNSt12_Destroy_auxILb1EE9__destroyIPhEEvT_S3_
	nop
	leave
	.cfi_def_cfa 7, 8
	ret
	.cfi_endproc
.LFE7814:
	.size	_ZSt8_DestroyIPhEvT_S1_, .-_ZSt8_DestroyIPhEvT_S1_
	.section	.text._ZNKSt6vectorIhSaIhEE8max_sizeEv,"axG",@progbits,_ZNKSt6vectorIhSaIhEE8max_sizeEv,comdat
	.align 2
	.weak	_ZNKSt6vectorIhSaIhEE8max_sizeEv
	.type	_ZNKSt6vectorIhSaIhEE8max_sizeEv, @function
_ZNKSt6vectorIhSaIhEE8max_sizeEv:
.LFB7815:
	.cfi_startproc
	endbr64
	push	rbp
	.cfi_def_cfa_offset 16
	.cfi_offset 6, -16
	mov	rbp, rsp
	.cfi_def_cfa_register 6
	sub	rsp, 16
	mov	QWORD PTR -8[rbp], rdi
	mov	rax, QWORD PTR -8[rbp]
	mov	rdi, rax
	call	_ZNKSt12_Vector_baseIhSaIhEE19_M_get_Tp_allocatorEv
	mov	rdi, rax
	call	_ZNSt6vectorIhSaIhEE11_S_max_sizeERKS0_
	leave
	.cfi_def_cfa 7, 8
	ret
	.cfi_endproc
.LFE7815:
	.size	_ZNKSt6vectorIhSaIhEE8max_sizeEv, .-_ZNKSt6vectorIhSaIhEE8max_sizeEv
	.section	.text._ZSt27__uninitialized_default_n_aIPhmhET_S1_T0_RSaIT1_E,"axG",@progbits,_ZSt27__uninitialized_default_n_aIPhmhET_S1_T0_RSaIT1_E,comdat
	.weak	_ZSt27__uninitialized_default_n_aIPhmhET_S1_T0_RSaIT1_E
	.type	_ZSt27__uninitialized_default_n_aIPhmhET_S1_T0_RSaIT1_E, @function
_ZSt27__uninitialized_default_n_aIPhmhET_S1_T0_RSaIT1_E:
.LFB7816:
	.cfi_startproc
	endbr64
	push	rbp
	.cfi_def_cfa_offset 16
	.cfi_offset 6, -16
	mov	rbp, rsp
	.cfi_def_cfa_register 6
	sub	rsp, 32
	mov	QWORD PTR -8[rbp], rdi
	mov	QWORD PTR -16[rbp], rsi
	mov	QWORD PTR -24[rbp], rdx
	mov	rdx, QWORD PTR -16[rbp]
	mov	rax, QWORD PTR -8[rbp]
	mov	rsi, rdx
	mov	rdi, rax
	call	_ZSt25__uninitialized_default_nIPhmET_S1_T0_
	leave
	.cfi_def_cfa 7, 8
	ret
	.cfi_endproc
.LFE7816:
	.size	_ZSt27__uninitialized_default_n_aIPhmhET_S1_T0_RSaIT1_E, .-_ZSt27__uninitialized_default_n_aIPhmhET_S1_T0_RSaIT1_E
	.section	.text._ZNKSt6vectorIhSaIhEE12_M_check_lenEmPKc,"axG",@progbits,_ZNKSt6vectorIhSaIhEE12_M_check_lenEmPKc,comdat
	.align 2
	.weak	_ZNKSt6vectorIhSaIhEE12_M_check_lenEmPKc
	.type	_ZNKSt6vectorIhSaIhEE12_M_check_lenEmPKc, @function
_ZNKSt6vectorIhSaIhEE12_M_check_lenEmPKc:
.LFB7817:
	.cfi_startproc
	endbr64
	push	rbp
	.cfi_def_cfa_offset 16
	.cfi_offset 6, -16
	mov	rbp, rsp
	.cfi_def_cfa_register 6
	push	rbx
	sub	rsp, 72
	.cfi_offset 3, -24
	mov	QWORD PTR -56[rbp], rdi
	mov	QWORD PTR -64[rbp], rsi
	mov	QWORD PTR -72[rbp], rdx
	mov	rax, QWORD PTR fs:40
	mov	QWORD PTR -24[rbp], rax
	xor	eax, eax
	mov	rax, QWORD PTR -56[rbp]
	mov	rdi, rax
	call	_ZNKSt6vectorIhSaIhEE8max_sizeEv
	mov	rbx, rax
	mov	rax, QWORD PTR -56[rbp]
	mov	rdi, rax
	call	_ZNKSt6vectorIhSaIhEE4sizeEv
	sub	rbx, rax
	mov	rdx, rbx
	mov	rax, QWORD PTR -64[rbp]
	cmp	rdx, rax
	setb	al
	test	al, al
	je	.L163
	mov	rax, QWORD PTR -72[rbp]
	mov	rdi, rax
	call	_ZSt20__throw_length_errorPKc@PLT
.L163:
	mov	rax, QWORD PTR -56[rbp]
	mov	rdi, rax
	call	_ZNKSt6vectorIhSaIhEE4sizeEv
	mov	rbx, rax
	mov	rax, QWORD PTR -56[rbp]
	mov	rdi, rax
	call	_ZNKSt6vectorIhSaIhEE4sizeEv
	mov	QWORD PTR -40[rbp], rax
	lea	rdx, -64[rbp]
	lea	rax, -40[rbp]
	mov	rsi, rdx
	mov	rdi, rax
	call	_ZSt3maxImERKT_S2_S2_
	mov	rax, QWORD PTR [rax]
	add	rax, rbx
	mov	QWORD PTR -32[rbp], rax
	mov	rax, QWORD PTR -56[rbp]
	mov	rdi, rax
	call	_ZNKSt6vectorIhSaIhEE4sizeEv
	cmp	QWORD PTR -32[rbp], rax
	jb	.L164
	mov	rax, QWORD PTR -56[rbp]
	mov	rdi, rax
	call	_ZNKSt6vectorIhSaIhEE8max_sizeEv
	cmp	rax, QWORD PTR -32[rbp]
	jnb	.L165
.L164:
	mov	rax, QWORD PTR -56[rbp]
	mov	rdi, rax
	call	_ZNKSt6vectorIhSaIhEE8max_sizeEv
	jmp	.L166
.L165:
	mov	rax, QWORD PTR -32[rbp]
.L166:
	mov	rdx, QWORD PTR -24[rbp]
	sub	rdx, QWORD PTR fs:40
	je	.L168
	call	__stack_chk_fail@PLT
.L168:
	mov	rbx, QWORD PTR -8[rbp]
	leave
	.cfi_def_cfa 7, 8
	ret
	.cfi_endproc
.LFE7817:
	.size	_ZNKSt6vectorIhSaIhEE12_M_check_lenEmPKc, .-_ZNKSt6vectorIhSaIhEE12_M_check_lenEmPKc
	.section	.text._ZNSt12_Vector_baseIhSaIhEE11_M_allocateEm,"axG",@progbits,_ZNSt12_Vector_baseIhSaIhEE11_M_allocateEm,comdat
	.align 2
	.weak	_ZNSt12_Vector_baseIhSaIhEE11_M_allocateEm
	.type	_ZNSt12_Vector_baseIhSaIhEE11_M_allocateEm, @function
_ZNSt12_Vector_baseIhSaIhEE11_M_allocateEm:
.LFB7818:
	.cfi_startproc
	endbr64
	push	rbp
	.cfi_def_cfa_offset 16
	.cfi_offset 6, -16
	mov	rbp, rsp
	.cfi_def_cfa_register 6
	sub	rsp, 16
	mov	QWORD PTR -8[rbp], rdi
	mov	QWORD PTR -16[rbp], rsi
	cmp	QWORD PTR -16[rbp], 0
	je	.L170
	mov	rax, QWORD PTR -8[rbp]
	mov	rdx, QWORD PTR -16[rbp]
	mov	rsi, rdx
	mov	rdi, rax
	call	_ZNSt16allocator_traitsISaIhEE8allocateERS0_m
	jmp	.L172
.L170:
	mov	eax, 0
.L172:
	leave
	.cfi_def_cfa 7, 8
	ret
	.cfi_endproc
.LFE7818:
	.size	_ZNSt12_Vector_baseIhSaIhEE11_M_allocateEm, .-_ZNSt12_Vector_baseIhSaIhEE11_M_allocateEm
	.section	.text._ZNSt6vectorIhSaIhEE11_S_relocateEPhS2_S2_RS0_,"axG",@progbits,_ZNSt6vectorIhSaIhEE11_S_relocateEPhS2_S2_RS0_,comdat
	.weak	_ZNSt6vectorIhSaIhEE11_S_relocateEPhS2_S2_RS0_
	.type	_ZNSt6vectorIhSaIhEE11_S_relocateEPhS2_S2_RS0_, @function
_ZNSt6vectorIhSaIhEE11_S_relocateEPhS2_S2_RS0_:
.LFB7819:
	.cfi_startproc
	endbr64
	push	rbp
	.cfi_def_cfa_offset 16
	.cfi_offset 6, -16
	mov	rbp, rsp
	.cfi_def_cfa_register 6
	sub	rsp, 32
	mov	QWORD PTR -8[rbp], rdi
	mov	QWORD PTR -16[rbp], rsi
	mov	QWORD PTR -24[rbp], rdx
	mov	QWORD PTR -32[rbp], rcx
	mov	rcx, QWORD PTR -32[rbp]
	mov	rdx, QWORD PTR -24[rbp]
	mov	rsi, QWORD PTR -16[rbp]
	mov	rax, QWORD PTR -8[rbp]
	mov	rdi, rax
	call	_ZSt12__relocate_aIPhS0_SaIhEET0_T_S3_S2_RT1_
	leave
	.cfi_def_cfa 7, 8
	ret
	.cfi_endproc
.LFE7819:
	.size	_ZNSt6vectorIhSaIhEE11_S_relocateEPhS2_S2_RS0_, .-_ZNSt6vectorIhSaIhEE11_S_relocateEPhS2_S2_RS0_
	.section	.text._ZNSt15__new_allocatorISt4pairIKNSt7__cxx1112basic_stringIcSt11char_traitsIcESaIcEEEPFvvEEEC2ERKSB_,"axG",@progbits,_ZNSt15__new_allocatorISt4pairIKNSt7__cxx1112basic_stringIcSt11char_traitsIcESaIcEEEPFvvEEEC5ERKSB_,comdat
	.align 2
	.weak	_ZNSt15__new_allocatorISt4pairIKNSt7__cxx1112basic_stringIcSt11char_traitsIcESaIcEEEPFvvEEEC2ERKSB_
	.type	_ZNSt15__new_allocatorISt4pairIKNSt7__cxx1112basic_stringIcSt11char_traitsIcESaIcEEEPFvvEEEC2ERKSB_, @function
_ZNSt15__new_allocatorISt4pairIKNSt7__cxx1112basic_stringIcSt11char_traitsIcESaIcEEEPFvvEEEC2ERKSB_:
.LFB7824:
	.cfi_startproc
	endbr64
	push	rbp
	.cfi_def_cfa_offset 16
	.cfi_offset 6, -16
	mov	rbp, rsp
	.cfi_def_cfa_register 6
	mov	QWORD PTR -8[rbp], rdi
	mov	QWORD PTR -16[rbp], rsi
	nop
	pop	rbp
	.cfi_def_cfa 7, 8
	ret
	.cfi_endproc
.LFE7824:
	.size	_ZNSt15__new_allocatorISt4pairIKNSt7__cxx1112basic_stringIcSt11char_traitsIcESaIcEEEPFvvEEEC2ERKSB_, .-_ZNSt15__new_allocatorISt4pairIKNSt7__cxx1112basic_stringIcSt11char_traitsIcESaIcEEEPFvvEEEC2ERKSB_
	.weak	_ZNSt15__new_allocatorISt4pairIKNSt7__cxx1112basic_stringIcSt11char_traitsIcESaIcEEEPFvvEEEC1ERKSB_
	.set	_ZNSt15__new_allocatorISt4pairIKNSt7__cxx1112basic_stringIcSt11char_traitsIcESaIcEEEPFvvEEEC1ERKSB_,_ZNSt15__new_allocatorISt4pairIKNSt7__cxx1112basic_stringIcSt11char_traitsIcESaIcEEEPFvvEEEC2ERKSB_
	.section	.text._ZNSaISt13_Rb_tree_nodeISt4pairIKNSt7__cxx1112basic_stringIcSt11char_traitsIcESaIcEEEPFvvEEEEC2ISA_EERKSaIT_E,"axG",@progbits,_ZNSaISt13_Rb_tree_nodeISt4pairIKNSt7__cxx1112basic_stringIcSt11char_traitsIcESaIcEEEPFvvEEEEC5ISA_EERKSaIT_E,comdat
	.align 2
	.weak	_ZNSaISt13_Rb_tree_nodeISt4pairIKNSt7__cxx1112basic_stringIcSt11char_traitsIcESaIcEEEPFvvEEEEC2ISA_EERKSaIT_E
	.type	_ZNSaISt13_Rb_tree_nodeISt4pairIKNSt7__cxx1112basic_stringIcSt11char_traitsIcESaIcEEEPFvvEEEEC2ISA_EERKSaIT_E, @function
_ZNSaISt13_Rb_tree_nodeISt4pairIKNSt7__cxx1112basic_stringIcSt11char_traitsIcESaIcEEEPFvvEEEEC2ISA_EERKSaIT_E:
.LFB7827:
	.cfi_startproc
	endbr64
	push	rbp
	.cfi_def_cfa_offset 16
	.cfi_offset 6, -16
	mov	rbp, rsp
	.cfi_def_cfa_register 6
	sub	rsp, 16
	mov	QWORD PTR -8[rbp], rdi
	mov	QWORD PTR -16[rbp], rsi
	mov	rax, QWORD PTR -8[rbp]
	mov	rdi, rax
	call	_ZNSt15__new_allocatorISt13_Rb_tree_nodeISt4pairIKNSt7__cxx1112basic_stringIcSt11char_traitsIcESaIcEEEPFvvEEEEC2Ev
	nop
	leave
	.cfi_def_cfa 7, 8
	ret
	.cfi_endproc
.LFE7827:
	.size	_ZNSaISt13_Rb_tree_nodeISt4pairIKNSt7__cxx1112basic_stringIcSt11char_traitsIcESaIcEEEPFvvEEEEC2ISA_EERKSaIT_E, .-_ZNSaISt13_Rb_tree_nodeISt4pairIKNSt7__cxx1112basic_stringIcSt11char_traitsIcESaIcEEEPFvvEEEEC2ISA_EERKSaIT_E
	.weak	_ZNSaISt13_Rb_tree_nodeISt4pairIKNSt7__cxx1112basic_stringIcSt11char_traitsIcESaIcEEEPFvvEEEEC1ISA_EERKSaIT_E
	.set	_ZNSaISt13_Rb_tree_nodeISt4pairIKNSt7__cxx1112basic_stringIcSt11char_traitsIcESaIcEEEPFvvEEEEC1ISA_EERKSaIT_E,_ZNSaISt13_Rb_tree_nodeISt4pairIKNSt7__cxx1112basic_stringIcSt11char_traitsIcESaIcEEEPFvvEEEEC2ISA_EERKSaIT_E
	.section	.text._ZNSaISt13_Rb_tree_nodeISt4pairIKNSt7__cxx1112basic_stringIcSt11char_traitsIcESaIcEEEPFvvEEEED2Ev,"axG",@progbits,_ZNSaISt13_Rb_tree_nodeISt4pairIKNSt7__cxx1112basic_stringIcSt11char_traitsIcESaIcEEEPFvvEEEED5Ev,comdat
	.align 2
	.weak	_ZNSaISt13_Rb_tree_nodeISt4pairIKNSt7__cxx1112basic_stringIcSt11char_traitsIcESaIcEEEPFvvEEEED2Ev
	.type	_ZNSaISt13_Rb_tree_nodeISt4pairIKNSt7__cxx1112basic_stringIcSt11char_traitsIcESaIcEEEPFvvEEEED2Ev, @function
_ZNSaISt13_Rb_tree_nodeISt4pairIKNSt7__cxx1112basic_stringIcSt11char_traitsIcESaIcEEEPFvvEEEED2Ev:
.LFB7830:
	.cfi_startproc
	endbr64
	push	rbp
	.cfi_def_cfa_offset 16
	.cfi_offset 6, -16
	mov	rbp, rsp
	.cfi_def_cfa_register 6
	sub	rsp, 16
	mov	QWORD PTR -8[rbp], rdi
	mov	rax, QWORD PTR -8[rbp]
	mov	rdi, rax
	call	_ZNSt15__new_allocatorISt13_Rb_tree_nodeISt4pairIKNSt7__cxx1112basic_stringIcSt11char_traitsIcESaIcEEEPFvvEEEED2Ev
	nop
	leave
	.cfi_def_cfa 7, 8
	ret
	.cfi_endproc
.LFE7830:
	.size	_ZNSaISt13_Rb_tree_nodeISt4pairIKNSt7__cxx1112basic_stringIcSt11char_traitsIcESaIcEEEPFvvEEEED2Ev, .-_ZNSaISt13_Rb_tree_nodeISt4pairIKNSt7__cxx1112basic_stringIcSt11char_traitsIcESaIcEEEPFvvEEEED2Ev
	.weak	_ZNSaISt13_Rb_tree_nodeISt4pairIKNSt7__cxx1112basic_stringIcSt11char_traitsIcESaIcEEEPFvvEEEED1Ev
	.set	_ZNSaISt13_Rb_tree_nodeISt4pairIKNSt7__cxx1112basic_stringIcSt11char_traitsIcESaIcEEEPFvvEEEED1Ev,_ZNSaISt13_Rb_tree_nodeISt4pairIKNSt7__cxx1112basic_stringIcSt11char_traitsIcESaIcEEEPFvvEEEED2Ev
	.section	.text._ZNSt8_Rb_treeINSt7__cxx1112basic_stringIcSt11char_traitsIcESaIcEEESt4pairIKS5_PFvvEESt10_Select1stISA_ESt4lessIS5_ESaISA_EE13_Rb_tree_implISE_Lb1EEC2ERKSE_OSaISt13_Rb_tree_nodeISA_EE,"axG",@progbits,_ZNSt8_Rb_treeINSt7__cxx1112basic_stringIcSt11char_traitsIcESaIcEEESt4pairIKS5_PFvvEESt10_Select1stISA_ESt4lessIS5_ESaISA_EE13_Rb_tree_implISE_Lb1EEC5ERKSE_OSaISt13_Rb_tree_nodeISA_EE,comdat
	.align 2
	.weak	_ZNSt8_Rb_treeINSt7__cxx1112basic_stringIcSt11char_traitsIcESaIcEEESt4pairIKS5_PFvvEESt10_Select1stISA_ESt4lessIS5_ESaISA_EE13_Rb_tree_implISE_Lb1EEC2ERKSE_OSaISt13_Rb_tree_nodeISA_EE
	.type	_ZNSt8_Rb_treeINSt7__cxx1112basic_stringIcSt11char_traitsIcESaIcEEESt4pairIKS5_PFvvEESt10_Select1stISA_ESt4lessIS5_ESaISA_EE13_Rb_tree_implISE_Lb1EEC2ERKSE_OSaISt13_Rb_tree_nodeISA_EE, @function
_ZNSt8_Rb_treeINSt7__cxx1112basic_stringIcSt11char_traitsIcESaIcEEESt4pairIKS5_PFvvEESt10_Select1stISA_ESt4lessIS5_ESaISA_EE13_Rb_tree_implISE_Lb1EEC2ERKSE_OSaISt13_Rb_tree_nodeISA_EE:
.LFB7833:
	.cfi_startproc
	endbr64
	push	rbp
	.cfi_def_cfa_offset 16
	.cfi_offset 6, -16
	mov	rbp, rsp
	.cfi_def_cfa_register 6
	sub	rsp, 32
	mov	QWORD PTR -8[rbp], rdi
	mov	QWORD PTR -16[rbp], rsi
	mov	QWORD PTR -24[rbp], rdx
	mov	rax, QWORD PTR -24[rbp]
	mov	rdi, rax
	call	_ZSt4moveIRSaISt13_Rb_tree_nodeISt4pairIKNSt7__cxx1112basic_stringIcSt11char_traitsIcESaIcEEEPFvvEEEEEONSt16remove_referenceIT_E4typeEOSG_
	mov	rdx, rax
	mov	rax, QWORD PTR -8[rbp]
	mov	rsi, rdx
	mov	rdi, rax
	call	_ZNSaISt13_Rb_tree_nodeISt4pairIKNSt7__cxx1112basic_stringIcSt11char_traitsIcESaIcEEEPFvvEEEEC2ERKSC_
	mov	rax, QWORD PTR -8[rbp]
	mov	rdx, QWORD PTR -16[rbp]
	mov	rsi, rdx
	mov	rdi, rax
	call	_ZNSt20_Rb_tree_key_compareISt4lessINSt7__cxx1112basic_stringIcSt11char_traitsIcESaIcEEEEEC2ERKS7_
	mov	rax, QWORD PTR -8[rbp]
	add	rax, 8
	mov	rdi, rax
	call	_ZNSt15_Rb_tree_headerC2Ev
	nop
	leave
	.cfi_def_cfa 7, 8
	ret
	.cfi_endproc
.LFE7833:
	.size	_ZNSt8_Rb_treeINSt7__cxx1112basic_stringIcSt11char_traitsIcESaIcEEESt4pairIKS5_PFvvEESt10_Select1stISA_ESt4lessIS5_ESaISA_EE13_Rb_tree_implISE_Lb1EEC2ERKSE_OSaISt13_Rb_tree_nodeISA_EE, .-_ZNSt8_Rb_treeINSt7__cxx1112basic_stringIcSt11char_traitsIcESaIcEEESt4pairIKS5_PFvvEESt10_Select1stISA_ESt4lessIS5_ESaISA_EE13_Rb_tree_implISE_Lb1EEC2ERKSE_OSaISt13_Rb_tree_nodeISA_EE
	.weak	_ZNSt8_Rb_treeINSt7__cxx1112basic_stringIcSt11char_traitsIcESaIcEEESt4pairIKS5_PFvvEESt10_Select1stISA_ESt4lessIS5_ESaISA_EE13_Rb_tree_implISE_Lb1EEC1ERKSE_OSaISt13_Rb_tree_nodeISA_EE
	.set	_ZNSt8_Rb_treeINSt7__cxx1112basic_stringIcSt11char_traitsIcESaIcEEESt4pairIKS5_PFvvEESt10_Select1stISA_ESt4lessIS5_ESaISA_EE13_Rb_tree_implISE_Lb1EEC1ERKSE_OSaISt13_Rb_tree_nodeISA_EE,_ZNSt8_Rb_treeINSt7__cxx1112basic_stringIcSt11char_traitsIcESaIcEEESt4pairIKS5_PFvvEESt10_Select1stISA_ESt4lessIS5_ESaISA_EE13_Rb_tree_implISE_Lb1EEC2ERKSE_OSaISt13_Rb_tree_nodeISA_EE
	.section	.text._ZNSt8_Rb_treeINSt7__cxx1112basic_stringIcSt11char_traitsIcESaIcEEESt4pairIKS5_PFvvEESt10_Select1stISA_ESt4lessIS5_ESaISA_EE8_M_eraseEPSt13_Rb_tree_nodeISA_E,"axG",@progbits,_ZNSt8_Rb_treeINSt7__cxx1112basic_stringIcSt11char_traitsIcESaIcEEESt4pairIKS5_PFvvEESt10_Select1stISA_ESt4lessIS5_ESaISA_EE8_M_eraseEPSt13_Rb_tree_nodeISA_E,comdat
	.align 2
	.weak	_ZNSt8_Rb_treeINSt7__cxx1112basic_stringIcSt11char_traitsIcESaIcEEESt4pairIKS5_PFvvEESt10_Select1stISA_ESt4lessIS5_ESaISA_EE8_M_eraseEPSt13_Rb_tree_nodeISA_E
	.type	_ZNSt8_Rb_treeINSt7__cxx1112basic_stringIcSt11char_traitsIcESaIcEEESt4pairIKS5_PFvvEESt10_Select1stISA_ESt4lessIS5_ESaISA_EE8_M_eraseEPSt13_Rb_tree_nodeISA_E, @function
_ZNSt8_Rb_treeINSt7__cxx1112basic_stringIcSt11char_traitsIcESaIcEEESt4pairIKS5_PFvvEESt10_Select1stISA_ESt4lessIS5_ESaISA_EE8_M_eraseEPSt13_Rb_tree_nodeISA_E:
.LFB7835:
	.cfi_startproc
	endbr64
	push	rbp
	.cfi_def_cfa_offset 16
	.cfi_offset 6, -16
	mov	rbp, rsp
	.cfi_def_cfa_register 6
	sub	rsp, 32
	mov	QWORD PTR -24[rbp], rdi
	mov	QWORD PTR -32[rbp], rsi
	jmp	.L180
.L181:
	mov	rax, QWORD PTR -32[rbp]
	mov	rdi, rax
	call	_ZNSt8_Rb_treeINSt7__cxx1112basic_stringIcSt11char_traitsIcESaIcEEESt4pairIKS5_PFvvEESt10_Select1stISA_ESt4lessIS5_ESaISA_EE8_S_rightEPSt18_Rb_tree_node_base
	mov	rdx, rax
	mov	rax, QWORD PTR -24[rbp]
	mov	rsi, rdx
	mov	rdi, rax
	call	_ZNSt8_Rb_treeINSt7__cxx1112basic_stringIcSt11char_traitsIcESaIcEEESt4pairIKS5_PFvvEESt10_Select1stISA_ESt4lessIS5_ESaISA_EE8_M_eraseEPSt13_Rb_tree_nodeISA_E
	mov	rax, QWORD PTR -32[rbp]
	mov	rdi, rax
	call	_ZNSt8_Rb_treeINSt7__cxx1112basic_stringIcSt11char_traitsIcESaIcEEESt4pairIKS5_PFvvEESt10_Select1stISA_ESt4lessIS5_ESaISA_EE7_S_leftEPSt18_Rb_tree_node_base
	mov	QWORD PTR -8[rbp], rax
	mov	rdx, QWORD PTR -32[rbp]
	mov	rax, QWORD PTR -24[rbp]
	mov	rsi, rdx
	mov	rdi, rax
	call	_ZNSt8_Rb_treeINSt7__cxx1112basic_stringIcSt11char_traitsIcESaIcEEESt4pairIKS5_PFvvEESt10_Select1stISA_ESt4lessIS5_ESaISA_EE12_M_drop_nodeEPSt13_Rb_tree_nodeISA_E
	mov	rax, QWORD PTR -8[rbp]
	mov	QWORD PTR -32[rbp], rax
.L180:
	cmp	QWORD PTR -32[rbp], 0
	jne	.L181
	nop
	nop
	leave
	.cfi_def_cfa 7, 8
	ret
	.cfi_endproc
.LFE7835:
	.size	_ZNSt8_Rb_treeINSt7__cxx1112basic_stringIcSt11char_traitsIcESaIcEEESt4pairIKS5_PFvvEESt10_Select1stISA_ESt4lessIS5_ESaISA_EE8_M_eraseEPSt13_Rb_tree_nodeISA_E, .-_ZNSt8_Rb_treeINSt7__cxx1112basic_stringIcSt11char_traitsIcESaIcEEESt4pairIKS5_PFvvEESt10_Select1stISA_ESt4lessIS5_ESaISA_EE8_M_eraseEPSt13_Rb_tree_nodeISA_E
	.section	.text._ZNSt8_Rb_treeINSt7__cxx1112basic_stringIcSt11char_traitsIcESaIcEEESt4pairIKS5_PFvvEESt10_Select1stISA_ESt4lessIS5_ESaISA_EE8_M_beginEv,"axG",@progbits,_ZNSt8_Rb_treeINSt7__cxx1112basic_stringIcSt11char_traitsIcESaIcEEESt4pairIKS5_PFvvEESt10_Select1stISA_ESt4lessIS5_ESaISA_EE8_M_beginEv,comdat
	.align 2
	.weak	_ZNSt8_Rb_treeINSt7__cxx1112basic_stringIcSt11char_traitsIcESaIcEEESt4pairIKS5_PFvvEESt10_Select1stISA_ESt4lessIS5_ESaISA_EE8_M_beginEv
	.type	_ZNSt8_Rb_treeINSt7__cxx1112basic_stringIcSt11char_traitsIcESaIcEEESt4pairIKS5_PFvvEESt10_Select1stISA_ESt4lessIS5_ESaISA_EE8_M_beginEv, @function
_ZNSt8_Rb_treeINSt7__cxx1112basic_stringIcSt11char_traitsIcESaIcEEESt4pairIKS5_PFvvEESt10_Select1stISA_ESt4lessIS5_ESaISA_EE8_M_beginEv:
.LFB7836:
	.cfi_startproc
	endbr64
	push	rbp
	.cfi_def_cfa_offset 16
	.cfi_offset 6, -16
	mov	rbp, rsp
	.cfi_def_cfa_register 6
	sub	rsp, 16
	mov	QWORD PTR -8[rbp], rdi
	mov	rax, QWORD PTR -8[rbp]
	mov	rdi, rax
	call	_ZNKSt8_Rb_treeINSt7__cxx1112basic_stringIcSt11char_traitsIcESaIcEEESt4pairIKS5_PFvvEESt10_Select1stISA_ESt4lessIS5_ESaISA_EE9_M_mbeginEv
	leave
	.cfi_def_cfa 7, 8
	ret
	.cfi_endproc
.LFE7836:
	.size	_ZNSt8_Rb_treeINSt7__cxx1112basic_stringIcSt11char_traitsIcESaIcEEESt4pairIKS5_PFvvEESt10_Select1stISA_ESt4lessIS5_ESaISA_EE8_M_beginEv, .-_ZNSt8_Rb_treeINSt7__cxx1112basic_stringIcSt11char_traitsIcESaIcEEESt4pairIKS5_PFvvEESt10_Select1stISA_ESt4lessIS5_ESaISA_EE8_M_beginEv
	.section	.text._ZNKSt16initializer_listISt4pairIKNSt7__cxx1112basic_stringIcSt11char_traitsIcESaIcEEEPFvvEEE4sizeEv,"axG",@progbits,_ZNKSt16initializer_listISt4pairIKNSt7__cxx1112basic_stringIcSt11char_traitsIcESaIcEEEPFvvEEE4sizeEv,comdat
	.align 2
	.weak	_ZNKSt16initializer_listISt4pairIKNSt7__cxx1112basic_stringIcSt11char_traitsIcESaIcEEEPFvvEEE4sizeEv
	.type	_ZNKSt16initializer_listISt4pairIKNSt7__cxx1112basic_stringIcSt11char_traitsIcESaIcEEEPFvvEEE4sizeEv, @function
_ZNKSt16initializer_listISt4pairIKNSt7__cxx1112basic_stringIcSt11char_traitsIcESaIcEEEPFvvEEE4sizeEv:
.LFB7837:
	.cfi_startproc
	endbr64
	push	rbp
	.cfi_def_cfa_offset 16
	.cfi_offset 6, -16
	mov	rbp, rsp
	.cfi_def_cfa_register 6
	mov	QWORD PTR -8[rbp], rdi
	mov	rax, QWORD PTR -8[rbp]
	mov	rax, QWORD PTR 8[rax]
	pop	rbp
	.cfi_def_cfa 7, 8
	ret
	.cfi_endproc
.LFE7837:
	.size	_ZNKSt16initializer_listISt4pairIKNSt7__cxx1112basic_stringIcSt11char_traitsIcESaIcEEEPFvvEEE4sizeEv, .-_ZNKSt16initializer_listISt4pairIKNSt7__cxx1112basic_stringIcSt11char_traitsIcESaIcEEEPFvvEEE4sizeEv
	.section	.text._ZNSt8_Rb_treeINSt7__cxx1112basic_stringIcSt11char_traitsIcESaIcEEESt4pairIKS5_PFvvEESt10_Select1stISA_ESt4lessIS5_ESaISA_EE11_Alloc_nodeC2ERSG_,"axG",@progbits,_ZNSt8_Rb_treeINSt7__cxx1112basic_stringIcSt11char_traitsIcESaIcEEESt4pairIKS5_PFvvEESt10_Select1stISA_ESt4lessIS5_ESaISA_EE11_Alloc_nodeC5ERSG_,comdat
	.align 2
	.weak	_ZNSt8_Rb_treeINSt7__cxx1112basic_stringIcSt11char_traitsIcESaIcEEESt4pairIKS5_PFvvEESt10_Select1stISA_ESt4lessIS5_ESaISA_EE11_Alloc_nodeC2ERSG_
	.type	_ZNSt8_Rb_treeINSt7__cxx1112basic_stringIcSt11char_traitsIcESaIcEEESt4pairIKS5_PFvvEESt10_Select1stISA_ESt4lessIS5_ESaISA_EE11_Alloc_nodeC2ERSG_, @function
_ZNSt8_Rb_treeINSt7__cxx1112basic_stringIcSt11char_traitsIcESaIcEEESt4pairIKS5_PFvvEESt10_Select1stISA_ESt4lessIS5_ESaISA_EE11_Alloc_nodeC2ERSG_:
.LFB7839:
	.cfi_startproc
	endbr64
	push	rbp
	.cfi_def_cfa_offset 16
	.cfi_offset 6, -16
	mov	rbp, rsp
	.cfi_def_cfa_register 6
	mov	QWORD PTR -8[rbp], rdi
	mov	QWORD PTR -16[rbp], rsi
	mov	rax, QWORD PTR -8[rbp]
	mov	rdx, QWORD PTR -16[rbp]
	mov	QWORD PTR [rax], rdx
	nop
	pop	rbp
	.cfi_def_cfa 7, 8
	ret
	.cfi_endproc
.LFE7839:
	.size	_ZNSt8_Rb_treeINSt7__cxx1112basic_stringIcSt11char_traitsIcESaIcEEESt4pairIKS5_PFvvEESt10_Select1stISA_ESt4lessIS5_ESaISA_EE11_Alloc_nodeC2ERSG_, .-_ZNSt8_Rb_treeINSt7__cxx1112basic_stringIcSt11char_traitsIcESaIcEEESt4pairIKS5_PFvvEESt10_Select1stISA_ESt4lessIS5_ESaISA_EE11_Alloc_nodeC2ERSG_
	.weak	_ZNSt8_Rb_treeINSt7__cxx1112basic_stringIcSt11char_traitsIcESaIcEEESt4pairIKS5_PFvvEESt10_Select1stISA_ESt4lessIS5_ESaISA_EE11_Alloc_nodeC1ERSG_
	.set	_ZNSt8_Rb_treeINSt7__cxx1112basic_stringIcSt11char_traitsIcESaIcEEESt4pairIKS5_PFvvEESt10_Select1stISA_ESt4lessIS5_ESaISA_EE11_Alloc_nodeC1ERSG_,_ZNSt8_Rb_treeINSt7__cxx1112basic_stringIcSt11char_traitsIcESaIcEEESt4pairIKS5_PFvvEESt10_Select1stISA_ESt4lessIS5_ESaISA_EE11_Alloc_nodeC2ERSG_
	.section	.text._ZNSt8_Rb_treeINSt7__cxx1112basic_stringIcSt11char_traitsIcESaIcEEESt4pairIKS5_PFvvEESt10_Select1stISA_ESt4lessIS5_ESaISA_EE3endEv,"axG",@progbits,_ZNSt8_Rb_treeINSt7__cxx1112basic_stringIcSt11char_traitsIcESaIcEEESt4pairIKS5_PFvvEESt10_Select1stISA_ESt4lessIS5_ESaISA_EE3endEv,comdat
	.align 2
	.weak	_ZNSt8_Rb_treeINSt7__cxx1112basic_stringIcSt11char_traitsIcESaIcEEESt4pairIKS5_PFvvEESt10_Select1stISA_ESt4lessIS5_ESaISA_EE3endEv
	.type	_ZNSt8_Rb_treeINSt7__cxx1112basic_stringIcSt11char_traitsIcESaIcEEESt4pairIKS5_PFvvEESt10_Select1stISA_ESt4lessIS5_ESaISA_EE3endEv, @function
_ZNSt8_Rb_treeINSt7__cxx1112basic_stringIcSt11char_traitsIcESaIcEEESt4pairIKS5_PFvvEESt10_Select1stISA_ESt4lessIS5_ESaISA_EE3endEv:
.LFB7841:
	.cfi_startproc
	endbr64
	push	rbp
	.cfi_def_cfa_offset 16
	.cfi_offset 6, -16
	mov	rbp, rsp
	.cfi_def_cfa_register 6
	sub	rsp, 32
	mov	QWORD PTR -24[rbp], rdi
	mov	rax, QWORD PTR fs:40
	mov	QWORD PTR -8[rbp], rax
	xor	eax, eax
	mov	rax, QWORD PTR -24[rbp]
	lea	rdx, 8[rax]
	lea	rax, -16[rbp]
	mov	rsi, rdx
	mov	rdi, rax
	call	_ZNSt17_Rb_tree_iteratorISt4pairIKNSt7__cxx1112basic_stringIcSt11char_traitsIcESaIcEEEPFvvEEEC1EPSt18_Rb_tree_node_base
	mov	rax, QWORD PTR -16[rbp]
	mov	rdx, QWORD PTR -8[rbp]
	sub	rdx, QWORD PTR fs:40
	je	.L189
	call	__stack_chk_fail@PLT
.L189:
	leave
	.cfi_def_cfa 7, 8
	ret
	.cfi_endproc
.LFE7841:
	.size	_ZNSt8_Rb_treeINSt7__cxx1112basic_stringIcSt11char_traitsIcESaIcEEESt4pairIKS5_PFvvEESt10_Select1stISA_ESt4lessIS5_ESaISA_EE3endEv, .-_ZNSt8_Rb_treeINSt7__cxx1112basic_stringIcSt11char_traitsIcESaIcEEESt4pairIKS5_PFvvEESt10_Select1stISA_ESt4lessIS5_ESaISA_EE3endEv
	.section	.text._ZNSt23_Rb_tree_const_iteratorISt4pairIKNSt7__cxx1112basic_stringIcSt11char_traitsIcESaIcEEEPFvvEEEC2ERKSt17_Rb_tree_iteratorISA_E,"axG",@progbits,_ZNSt23_Rb_tree_const_iteratorISt4pairIKNSt7__cxx1112basic_stringIcSt11char_traitsIcESaIcEEEPFvvEEEC5ERKSt17_Rb_tree_iteratorISA_E,comdat
	.align 2
	.weak	_ZNSt23_Rb_tree_const_iteratorISt4pairIKNSt7__cxx1112basic_stringIcSt11char_traitsIcESaIcEEEPFvvEEEC2ERKSt17_Rb_tree_iteratorISA_E
	.type	_ZNSt23_Rb_tree_const_iteratorISt4pairIKNSt7__cxx1112basic_stringIcSt11char_traitsIcESaIcEEEPFvvEEEC2ERKSt17_Rb_tree_iteratorISA_E, @function
_ZNSt23_Rb_tree_const_iteratorISt4pairIKNSt7__cxx1112basic_stringIcSt11char_traitsIcESaIcEEEPFvvEEEC2ERKSt17_Rb_tree_iteratorISA_E:
.LFB7843:
	.cfi_startproc
	endbr64
	push	rbp
	.cfi_def_cfa_offset 16
	.cfi_offset 6, -16
	mov	rbp, rsp
	.cfi_def_cfa_register 6
	mov	QWORD PTR -8[rbp], rdi
	mov	QWORD PTR -16[rbp], rsi
	mov	rax, QWORD PTR -16[rbp]
	mov	rdx, QWORD PTR [rax]
	mov	rax, QWORD PTR -8[rbp]
	mov	QWORD PTR [rax], rdx
	nop
	pop	rbp
	.cfi_def_cfa 7, 8
	ret
	.cfi_endproc
.LFE7843:
	.size	_ZNSt23_Rb_tree_const_iteratorISt4pairIKNSt7__cxx1112basic_stringIcSt11char_traitsIcESaIcEEEPFvvEEEC2ERKSt17_Rb_tree_iteratorISA_E, .-_ZNSt23_Rb_tree_const_iteratorISt4pairIKNSt7__cxx1112basic_stringIcSt11char_traitsIcESaIcEEEPFvvEEEC2ERKSt17_Rb_tree_iteratorISA_E
	.weak	_ZNSt23_Rb_tree_const_iteratorISt4pairIKNSt7__cxx1112basic_stringIcSt11char_traitsIcESaIcEEEPFvvEEEC1ERKSt17_Rb_tree_iteratorISA_E
	.set	_ZNSt23_Rb_tree_const_iteratorISt4pairIKNSt7__cxx1112basic_stringIcSt11char_traitsIcESaIcEEEPFvvEEEC1ERKSt17_Rb_tree_iteratorISA_E,_ZNSt23_Rb_tree_const_iteratorISt4pairIKNSt7__cxx1112basic_stringIcSt11char_traitsIcESaIcEEEPFvvEEEC2ERKSt17_Rb_tree_iteratorISA_E
	.section	.text._ZNSt8_Rb_treeINSt7__cxx1112basic_stringIcSt11char_traitsIcESaIcEEESt4pairIKS5_PFvvEESt10_Select1stISA_ESt4lessIS5_ESaISA_EE17_M_insert_unique_IRKSA_NSG_11_Alloc_nodeEEESt17_Rb_tree_iteratorISA_ESt23_Rb_tree_const_iteratorISA_EOT_RT0_,"axG",@progbits,_ZNSt8_Rb_treeINSt7__cxx1112basic_stringIcSt11char_traitsIcESaIcEEESt4pairIKS5_PFvvEESt10_Select1stISA_ESt4lessIS5_ESaISA_EE17_M_insert_unique_IRKSA_NSG_11_Alloc_nodeEEESt17_Rb_tree_iteratorISA_ESt23_Rb_tree_const_iteratorISA_EOT_RT0_,comdat
	.align 2
	.weak	_ZNSt8_Rb_treeINSt7__cxx1112basic_stringIcSt11char_traitsIcESaIcEEESt4pairIKS5_PFvvEESt10_Select1stISA_ESt4lessIS5_ESaISA_EE17_M_insert_unique_IRKSA_NSG_11_Alloc_nodeEEESt17_Rb_tree_iteratorISA_ESt23_Rb_tree_const_iteratorISA_EOT_RT0_
	.type	_ZNSt8_Rb_treeINSt7__cxx1112basic_stringIcSt11char_traitsIcESaIcEEESt4pairIKS5_PFvvEESt10_Select1stISA_ESt4lessIS5_ESaISA_EE17_M_insert_unique_IRKSA_NSG_11_Alloc_nodeEEESt17_Rb_tree_iteratorISA_ESt23_Rb_tree_const_iteratorISA_EOT_RT0_, @function
_ZNSt8_Rb_treeINSt7__cxx1112basic_stringIcSt11char_traitsIcESaIcEEESt4pairIKS5_PFvvEESt10_Select1stISA_ESt4lessIS5_ESaISA_EE17_M_insert_unique_IRKSA_NSG_11_Alloc_nodeEEESt17_Rb_tree_iteratorISA_ESt23_Rb_tree_const_iteratorISA_EOT_RT0_:
.LFB7845:
	.cfi_startproc
	endbr64
	push	rbp
	.cfi_def_cfa_offset 16
	.cfi_offset 6, -16
	mov	rbp, rsp
	.cfi_def_cfa_register 6
	sub	rsp, 80
	mov	QWORD PTR -56[rbp], rdi
	mov	QWORD PTR -64[rbp], rsi
	mov	QWORD PTR -72[rbp], rdx
	mov	QWORD PTR -80[rbp], rcx
	mov	rax, QWORD PTR fs:40
	mov	QWORD PTR -8[rbp], rax
	xor	eax, eax
	mov	rdx, QWORD PTR -72[rbp]
	lea	rax, -40[rbp]
	mov	rsi, rdx
	mov	rdi, rax
	call	_ZNKSt10_Select1stISt4pairIKNSt7__cxx1112basic_stringIcSt11char_traitsIcESaIcEEEPFvvEEEclERKSA_
	mov	rdx, rax
	mov	rcx, QWORD PTR -64[rbp]
	mov	rax, QWORD PTR -56[rbp]
	mov	rsi, rcx
	mov	rdi, rax
	call	_ZNSt8_Rb_treeINSt7__cxx1112basic_stringIcSt11char_traitsIcESaIcEEESt4pairIKS5_PFvvEESt10_Select1stISA_ESt4lessIS5_ESaISA_EE29_M_get_insert_hint_unique_posESt23_Rb_tree_const_iteratorISA_ERS7_
	mov	QWORD PTR -32[rbp], rax
	mov	QWORD PTR -24[rbp], rdx
	mov	rax, QWORD PTR -24[rbp]
	test	rax, rax
	je	.L192
	mov	rax, QWORD PTR -72[rbp]
	mov	rdi, rax
	call	_ZSt7forwardIRKSt4pairIKNSt7__cxx1112basic_stringIcSt11char_traitsIcESaIcEEEPFvvEEEOT_RNSt16remove_referenceISD_E4typeE
	mov	rcx, rax
	mov	rdx, QWORD PTR -24[rbp]
	mov	rsi, QWORD PTR -32[rbp]
	mov	rdi, QWORD PTR -80[rbp]
	mov	rax, QWORD PTR -56[rbp]
	mov	r8, rdi
	mov	rdi, rax
	call	_ZNSt8_Rb_treeINSt7__cxx1112basic_stringIcSt11char_traitsIcESaIcEEESt4pairIKS5_PFvvEESt10_Select1stISA_ESt4lessIS5_ESaISA_EE10_M_insert_IRKSA_NSG_11_Alloc_nodeEEESt17_Rb_tree_iteratorISA_EPSt18_Rb_tree_node_baseSO_OT_RT0_
	jmp	.L194
.L192:
	mov	rdx, QWORD PTR -32[rbp]
	lea	rax, -40[rbp]
	mov	rsi, rdx
	mov	rdi, rax
	call	_ZNSt17_Rb_tree_iteratorISt4pairIKNSt7__cxx1112basic_stringIcSt11char_traitsIcESaIcEEEPFvvEEEC1EPSt18_Rb_tree_node_base
	mov	rax, QWORD PTR -40[rbp]
.L194:
	mov	rdx, QWORD PTR -8[rbp]
	sub	rdx, QWORD PTR fs:40
	je	.L195
	call	__stack_chk_fail@PLT
.L195:
	leave
	.cfi_def_cfa 7, 8
	ret
	.cfi_endproc
.LFE7845:
	.size	_ZNSt8_Rb_treeINSt7__cxx1112basic_stringIcSt11char_traitsIcESaIcEEESt4pairIKS5_PFvvEESt10_Select1stISA_ESt4lessIS5_ESaISA_EE17_M_insert_unique_IRKSA_NSG_11_Alloc_nodeEEESt17_Rb_tree_iteratorISA_ESt23_Rb_tree_const_iteratorISA_EOT_RT0_, .-_ZNSt8_Rb_treeINSt7__cxx1112basic_stringIcSt11char_traitsIcESaIcEEESt4pairIKS5_PFvvEESt10_Select1stISA_ESt4lessIS5_ESaISA_EE17_M_insert_unique_IRKSA_NSG_11_Alloc_nodeEEESt17_Rb_tree_iteratorISA_ESt23_Rb_tree_const_iteratorISA_EOT_RT0_
	.section	.text._ZSt19__iterator_categoryIPKcENSt15iterator_traitsIT_E17iterator_categoryERKS3_,"axG",@progbits,_ZSt19__iterator_categoryIPKcENSt15iterator_traitsIT_E17iterator_categoryERKS3_,comdat
	.weak	_ZSt19__iterator_categoryIPKcENSt15iterator_traitsIT_E17iterator_categoryERKS3_
	.type	_ZSt19__iterator_categoryIPKcENSt15iterator_traitsIT_E17iterator_categoryERKS3_, @function
_ZSt19__iterator_categoryIPKcENSt15iterator_traitsIT_E17iterator_categoryERKS3_:
.LFB7859:
	.cfi_startproc
	endbr64
	push	rbp
	.cfi_def_cfa_offset 16
	.cfi_offset 6, -16
	mov	rbp, rsp
	.cfi_def_cfa_register 6
	mov	QWORD PTR -8[rbp], rdi
	nop
	pop	rbp
	.cfi_def_cfa 7, 8
	ret
	.cfi_endproc
.LFE7859:
	.size	_ZSt19__iterator_categoryIPKcENSt15iterator_traitsIT_E17iterator_categoryERKS3_, .-_ZSt19__iterator_categoryIPKcENSt15iterator_traitsIT_E17iterator_categoryERKS3_
	.section	.text._ZSt10__distanceIPKcENSt15iterator_traitsIT_E15difference_typeES3_S3_St26random_access_iterator_tag,"axG",@progbits,_ZSt10__distanceIPKcENSt15iterator_traitsIT_E15difference_typeES3_S3_St26random_access_iterator_tag,comdat
	.weak	_ZSt10__distanceIPKcENSt15iterator_traitsIT_E15difference_typeES3_S3_St26random_access_iterator_tag
	.type	_ZSt10__distanceIPKcENSt15iterator_traitsIT_E15difference_typeES3_S3_St26random_access_iterator_tag, @function
_ZSt10__distanceIPKcENSt15iterator_traitsIT_E15difference_typeES3_S3_St26random_access_iterator_tag:
.LFB7860:
	.cfi_startproc
	endbr64
	push	rbp
	.cfi_def_cfa_offset 16
	.cfi_offset 6, -16
	mov	rbp, rsp
	.cfi_def_cfa_register 6
	mov	QWORD PTR -8[rbp], rdi
	mov	QWORD PTR -16[rbp], rsi
	mov	rax, QWORD PTR -16[rbp]
	sub	rax, QWORD PTR -8[rbp]
	pop	rbp
	.cfi_def_cfa 7, 8
	ret
	.cfi_endproc
.LFE7860:
	.size	_ZSt10__distanceIPKcENSt15iterator_traitsIT_E15difference_typeES3_S3_St26random_access_iterator_tag, .-_ZSt10__distanceIPKcENSt15iterator_traitsIT_E15difference_typeES3_S3_St26random_access_iterator_tag
	.section	.text._ZNSt15__new_allocatorIhE10deallocateEPhm,"axG",@progbits,_ZNSt15__new_allocatorIhE10deallocateEPhm,comdat
	.align 2
	.weak	_ZNSt15__new_allocatorIhE10deallocateEPhm
	.type	_ZNSt15__new_allocatorIhE10deallocateEPhm, @function
_ZNSt15__new_allocatorIhE10deallocateEPhm:
.LFB7896:
	.cfi_startproc
	endbr64
	push	rbp
	.cfi_def_cfa_offset 16
	.cfi_offset 6, -16
	mov	rbp, rsp
	.cfi_def_cfa_register 6
	sub	rsp, 32
	mov	QWORD PTR -8[rbp], rdi
	mov	QWORD PTR -16[rbp], rsi
	mov	QWORD PTR -24[rbp], rdx
	mov	rdx, QWORD PTR -24[rbp]
	mov	rax, QWORD PTR -16[rbp]
	mov	rsi, rdx
	mov	rdi, rax
	call	_ZdlPvm@PLT
	leave
	.cfi_def_cfa 7, 8
	ret
	.cfi_endproc
.LFE7896:
	.size	_ZNSt15__new_allocatorIhE10deallocateEPhm, .-_ZNSt15__new_allocatorIhE10deallocateEPhm
	.section	.text._ZNSt12_Destroy_auxILb1EE9__destroyIPhEEvT_S3_,"axG",@progbits,_ZNSt12_Destroy_auxILb1EE9__destroyIPhEEvT_S3_,comdat
	.weak	_ZNSt12_Destroy_auxILb1EE9__destroyIPhEEvT_S3_
	.type	_ZNSt12_Destroy_auxILb1EE9__destroyIPhEEvT_S3_, @function
_ZNSt12_Destroy_auxILb1EE9__destroyIPhEEvT_S3_:
.LFB7897:
	.cfi_startproc
	endbr64
	push	rbp
	.cfi_def_cfa_offset 16
	.cfi_offset 6, -16
	mov	rbp, rsp
	.cfi_def_cfa_register 6
	mov	QWORD PTR -8[rbp], rdi
	mov	QWORD PTR -16[rbp], rsi
	nop
	pop	rbp
	.cfi_def_cfa 7, 8
	ret
	.cfi_endproc
.LFE7897:
	.size	_ZNSt12_Destroy_auxILb1EE9__destroyIPhEEvT_S3_, .-_ZNSt12_Destroy_auxILb1EE9__destroyIPhEEvT_S3_
	.section	.text._ZNSt6vectorIhSaIhEE11_S_max_sizeERKS0_,"axG",@progbits,_ZNSt6vectorIhSaIhEE11_S_max_sizeERKS0_,comdat
	.weak	_ZNSt6vectorIhSaIhEE11_S_max_sizeERKS0_
	.type	_ZNSt6vectorIhSaIhEE11_S_max_sizeERKS0_, @function
_ZNSt6vectorIhSaIhEE11_S_max_sizeERKS0_:
.LFB7898:
	.cfi_startproc
	endbr64
	push	rbp
	.cfi_def_cfa_offset 16
	.cfi_offset 6, -16
	mov	rbp, rsp
	.cfi_def_cfa_register 6
	sub	rsp, 48
	mov	QWORD PTR -40[rbp], rdi
	mov	rax, QWORD PTR fs:40
	mov	QWORD PTR -8[rbp], rax
	xor	eax, eax
	movabs	rax, 9223372036854775807
	mov	QWORD PTR -24[rbp], rax
	mov	rax, QWORD PTR -40[rbp]
	mov	rdi, rax
	call	_ZNSt16allocator_traitsISaIhEE8max_sizeERKS0_
	mov	QWORD PTR -16[rbp], rax
	lea	rdx, -16[rbp]
	lea	rax, -24[rbp]
	mov	rsi, rdx
	mov	rdi, rax
	call	_ZSt3minImERKT_S2_S2_
	mov	rax, QWORD PTR [rax]
	mov	rdx, QWORD PTR -8[rbp]
	sub	rdx, QWORD PTR fs:40
	je	.L205
	call	__stack_chk_fail@PLT
.L205:
	leave
	.cfi_def_cfa 7, 8
	ret
	.cfi_endproc
.LFE7898:
	.size	_ZNSt6vectorIhSaIhEE11_S_max_sizeERKS0_, .-_ZNSt6vectorIhSaIhEE11_S_max_sizeERKS0_
	.section	.text._ZNKSt12_Vector_baseIhSaIhEE19_M_get_Tp_allocatorEv,"axG",@progbits,_ZNKSt12_Vector_baseIhSaIhEE19_M_get_Tp_allocatorEv,comdat
	.align 2
	.weak	_ZNKSt12_Vector_baseIhSaIhEE19_M_get_Tp_allocatorEv
	.type	_ZNKSt12_Vector_baseIhSaIhEE19_M_get_Tp_allocatorEv, @function
_ZNKSt12_Vector_baseIhSaIhEE19_M_get_Tp_allocatorEv:
.LFB7899:
	.cfi_startproc
	endbr64
	push	rbp
	.cfi_def_cfa_offset 16
	.cfi_offset 6, -16
	mov	rbp, rsp
	.cfi_def_cfa_register 6
	mov	QWORD PTR -8[rbp], rdi
	mov	rax, QWORD PTR -8[rbp]
	pop	rbp
	.cfi_def_cfa 7, 8
	ret
	.cfi_endproc
.LFE7899:
	.size	_ZNKSt12_Vector_baseIhSaIhEE19_M_get_Tp_allocatorEv, .-_ZNKSt12_Vector_baseIhSaIhEE19_M_get_Tp_allocatorEv
	.section	.text._ZSt25__uninitialized_default_nIPhmET_S1_T0_,"axG",@progbits,_ZSt25__uninitialized_default_nIPhmET_S1_T0_,comdat
	.weak	_ZSt25__uninitialized_default_nIPhmET_S1_T0_
	.type	_ZSt25__uninitialized_default_nIPhmET_S1_T0_, @function
_ZSt25__uninitialized_default_nIPhmET_S1_T0_:
.LFB7900:
	.cfi_startproc
	endbr64
	push	rbp
	.cfi_def_cfa_offset 16
	.cfi_offset 6, -16
	mov	rbp, rsp
	.cfi_def_cfa_register 6
	sub	rsp, 32
	mov	QWORD PTR -24[rbp], rdi
	mov	QWORD PTR -32[rbp], rsi
	mov	BYTE PTR -1[rbp], 1
	mov	rdx, QWORD PTR -32[rbp]
	mov	rax, QWORD PTR -24[rbp]
	mov	rsi, rdx
	mov	rdi, rax
	call	_ZNSt27__uninitialized_default_n_1ILb1EE18__uninit_default_nIPhmEET_S3_T0_
	leave
	.cfi_def_cfa 7, 8
	ret
	.cfi_endproc
.LFE7900:
	.size	_ZSt25__uninitialized_default_nIPhmET_S1_T0_, .-_ZSt25__uninitialized_default_nIPhmET_S1_T0_
	.section	.text._ZSt3maxImERKT_S2_S2_,"axG",@progbits,_ZSt3maxImERKT_S2_S2_,comdat
	.weak	_ZSt3maxImERKT_S2_S2_
	.type	_ZSt3maxImERKT_S2_S2_, @function
_ZSt3maxImERKT_S2_S2_:
.LFB7901:
	.cfi_startproc
	endbr64
	push	rbp
	.cfi_def_cfa_offset 16
	.cfi_offset 6, -16
	mov	rbp, rsp
	.cfi_def_cfa_register 6
	mov	QWORD PTR -8[rbp], rdi
	mov	QWORD PTR -16[rbp], rsi
	mov	rax, QWORD PTR -8[rbp]
	mov	rdx, QWORD PTR [rax]
	mov	rax, QWORD PTR -16[rbp]
	mov	rax, QWORD PTR [rax]
	cmp	rdx, rax
	jnb	.L211
	mov	rax, QWORD PTR -16[rbp]
	jmp	.L212
.L211:
	mov	rax, QWORD PTR -8[rbp]
.L212:
	pop	rbp
	.cfi_def_cfa 7, 8
	ret
	.cfi_endproc
.LFE7901:
	.size	_ZSt3maxImERKT_S2_S2_, .-_ZSt3maxImERKT_S2_S2_
	.section	.text._ZNSt16allocator_traitsISaIhEE8allocateERS0_m,"axG",@progbits,_ZNSt16allocator_traitsISaIhEE8allocateERS0_m,comdat
	.weak	_ZNSt16allocator_traitsISaIhEE8allocateERS0_m
	.type	_ZNSt16allocator_traitsISaIhEE8allocateERS0_m, @function
_ZNSt16allocator_traitsISaIhEE8allocateERS0_m:
.LFB7902:
	.cfi_startproc
	endbr64
	push	rbp
	.cfi_def_cfa_offset 16
	.cfi_offset 6, -16
	mov	rbp, rsp
	.cfi_def_cfa_register 6
	sub	rsp, 16
	mov	QWORD PTR -8[rbp], rdi
	mov	QWORD PTR -16[rbp], rsi
	mov	rcx, QWORD PTR -16[rbp]
	mov	rax, QWORD PTR -8[rbp]
	mov	edx, 0
	mov	rsi, rcx
	mov	rdi, rax
	call	_ZNSt15__new_allocatorIhE8allocateEmPKv
	leave
	.cfi_def_cfa 7, 8
	ret
	.cfi_endproc
.LFE7902:
	.size	_ZNSt16allocator_traitsISaIhEE8allocateERS0_m, .-_ZNSt16allocator_traitsISaIhEE8allocateERS0_m
	.section	.text._ZSt12__relocate_aIPhS0_SaIhEET0_T_S3_S2_RT1_,"axG",@progbits,_ZSt12__relocate_aIPhS0_SaIhEET0_T_S3_S2_RT1_,comdat
	.weak	_ZSt12__relocate_aIPhS0_SaIhEET0_T_S3_S2_RT1_
	.type	_ZSt12__relocate_aIPhS0_SaIhEET0_T_S3_S2_RT1_, @function
_ZSt12__relocate_aIPhS0_SaIhEET0_T_S3_S2_RT1_:
.LFB7903:
	.cfi_startproc
	endbr64
	push	rbp
	.cfi_def_cfa_offset 16
	.cfi_offset 6, -16
	mov	rbp, rsp
	.cfi_def_cfa_register 6
	push	r12
	push	rbx
	sub	rsp, 32
	.cfi_offset 12, -24
	.cfi_offset 3, -32
	mov	QWORD PTR -24[rbp], rdi
	mov	QWORD PTR -32[rbp], rsi
	mov	QWORD PTR -40[rbp], rdx
	mov	QWORD PTR -48[rbp], rcx
	mov	rax, QWORD PTR -40[rbp]
	mov	rdi, rax
	call	_ZSt12__niter_baseIPhET_S1_
	mov	r12, rax
	mov	rax, QWORD PTR -32[rbp]
	mov	rdi, rax
	call	_ZSt12__niter_baseIPhET_S1_
	mov	rbx, rax
	mov	rax, QWORD PTR -24[rbp]
	mov	rdi, rax
	call	_ZSt12__niter_baseIPhET_S1_
	mov	rdi, rax
	mov	rax, QWORD PTR -48[rbp]
	mov	rcx, rax
	mov	rdx, r12
	mov	rsi, rbx
	call	_ZSt14__relocate_a_1IhhENSt9enable_ifIXsrSt24__is_bitwise_relocatableIT_vE5valueEPS2_E4typeES4_S4_S4_RSaIT0_E
	add	rsp, 32
	pop	rbx
	pop	r12
	pop	rbp
	.cfi_def_cfa 7, 8
	ret
	.cfi_endproc
.LFE7903:
	.size	_ZSt12__relocate_aIPhS0_SaIhEET0_T_S3_S2_RT1_, .-_ZSt12__relocate_aIPhS0_SaIhEET0_T_S3_S2_RT1_
	.section	.text._ZNSt15__new_allocatorISt13_Rb_tree_nodeISt4pairIKNSt7__cxx1112basic_stringIcSt11char_traitsIcESaIcEEEPFvvEEEEC2Ev,"axG",@progbits,_ZNSt15__new_allocatorISt13_Rb_tree_nodeISt4pairIKNSt7__cxx1112basic_stringIcSt11char_traitsIcESaIcEEEPFvvEEEEC5Ev,comdat
	.align 2
	.weak	_ZNSt15__new_allocatorISt13_Rb_tree_nodeISt4pairIKNSt7__cxx1112basic_stringIcSt11char_traitsIcESaIcEEEPFvvEEEEC2Ev
	.type	_ZNSt15__new_allocatorISt13_Rb_tree_nodeISt4pairIKNSt7__cxx1112basic_stringIcSt11char_traitsIcESaIcEEEPFvvEEEEC2Ev, @function
_ZNSt15__new_allocatorISt13_Rb_tree_nodeISt4pairIKNSt7__cxx1112basic_stringIcSt11char_traitsIcESaIcEEEPFvvEEEEC2Ev:
.LFB7905:
	.cfi_startproc
	endbr64
	push	rbp
	.cfi_def_cfa_offset 16
	.cfi_offset 6, -16
	mov	rbp, rsp
	.cfi_def_cfa_register 6
	mov	QWORD PTR -8[rbp], rdi
	nop
	pop	rbp
	.cfi_def_cfa 7, 8
	ret
	.cfi_endproc
.LFE7905:
	.size	_ZNSt15__new_allocatorISt13_Rb_tree_nodeISt4pairIKNSt7__cxx1112basic_stringIcSt11char_traitsIcESaIcEEEPFvvEEEEC2Ev, .-_ZNSt15__new_allocatorISt13_Rb_tree_nodeISt4pairIKNSt7__cxx1112basic_stringIcSt11char_traitsIcESaIcEEEPFvvEEEEC2Ev
	.weak	_ZNSt15__new_allocatorISt13_Rb_tree_nodeISt4pairIKNSt7__cxx1112basic_stringIcSt11char_traitsIcESaIcEEEPFvvEEEEC1Ev
	.set	_ZNSt15__new_allocatorISt13_Rb_tree_nodeISt4pairIKNSt7__cxx1112basic_stringIcSt11char_traitsIcESaIcEEEPFvvEEEEC1Ev,_ZNSt15__new_allocatorISt13_Rb_tree_nodeISt4pairIKNSt7__cxx1112basic_stringIcSt11char_traitsIcESaIcEEEPFvvEEEEC2Ev
	.section	.text._ZNSt15__new_allocatorISt13_Rb_tree_nodeISt4pairIKNSt7__cxx1112basic_stringIcSt11char_traitsIcESaIcEEEPFvvEEEED2Ev,"axG",@progbits,_ZNSt15__new_allocatorISt13_Rb_tree_nodeISt4pairIKNSt7__cxx1112basic_stringIcSt11char_traitsIcESaIcEEEPFvvEEEED5Ev,comdat
	.align 2
	.weak	_ZNSt15__new_allocatorISt13_Rb_tree_nodeISt4pairIKNSt7__cxx1112basic_stringIcSt11char_traitsIcESaIcEEEPFvvEEEED2Ev
	.type	_ZNSt15__new_allocatorISt13_Rb_tree_nodeISt4pairIKNSt7__cxx1112basic_stringIcSt11char_traitsIcESaIcEEEPFvvEEEED2Ev, @function
_ZNSt15__new_allocatorISt13_Rb_tree_nodeISt4pairIKNSt7__cxx1112basic_stringIcSt11char_traitsIcESaIcEEEPFvvEEEED2Ev:
.LFB7908:
	.cfi_startproc
	endbr64
	push	rbp
	.cfi_def_cfa_offset 16
	.cfi_offset 6, -16
	mov	rbp, rsp
	.cfi_def_cfa_register 6
	mov	QWORD PTR -8[rbp], rdi
	nop
	pop	rbp
	.cfi_def_cfa 7, 8
	ret
	.cfi_endproc
.LFE7908:
	.size	_ZNSt15__new_allocatorISt13_Rb_tree_nodeISt4pairIKNSt7__cxx1112basic_stringIcSt11char_traitsIcESaIcEEEPFvvEEEED2Ev, .-_ZNSt15__new_allocatorISt13_Rb_tree_nodeISt4pairIKNSt7__cxx1112basic_stringIcSt11char_traitsIcESaIcEEEPFvvEEEED2Ev
	.weak	_ZNSt15__new_allocatorISt13_Rb_tree_nodeISt4pairIKNSt7__cxx1112basic_stringIcSt11char_traitsIcESaIcEEEPFvvEEEED1Ev
	.set	_ZNSt15__new_allocatorISt13_Rb_tree_nodeISt4pairIKNSt7__cxx1112basic_stringIcSt11char_traitsIcESaIcEEEPFvvEEEED1Ev,_ZNSt15__new_allocatorISt13_Rb_tree_nodeISt4pairIKNSt7__cxx1112basic_stringIcSt11char_traitsIcESaIcEEEPFvvEEEED2Ev
	.section	.text._ZSt4moveIRSaISt13_Rb_tree_nodeISt4pairIKNSt7__cxx1112basic_stringIcSt11char_traitsIcESaIcEEEPFvvEEEEEONSt16remove_referenceIT_E4typeEOSG_,"axG",@progbits,_ZSt4moveIRSaISt13_Rb_tree_nodeISt4pairIKNSt7__cxx1112basic_stringIcSt11char_traitsIcESaIcEEEPFvvEEEEEONSt16remove_referenceIT_E4typeEOSG_,comdat
	.weak	_ZSt4moveIRSaISt13_Rb_tree_nodeISt4pairIKNSt7__cxx1112basic_stringIcSt11char_traitsIcESaIcEEEPFvvEEEEEONSt16remove_referenceIT_E4typeEOSG_
	.type	_ZSt4moveIRSaISt13_Rb_tree_nodeISt4pairIKNSt7__cxx1112basic_stringIcSt11char_traitsIcESaIcEEEPFvvEEEEEONSt16remove_referenceIT_E4typeEOSG_, @function
_ZSt4moveIRSaISt13_Rb_tree_nodeISt4pairIKNSt7__cxx1112basic_stringIcSt11char_traitsIcESaIcEEEPFvvEEEEEONSt16remove_referenceIT_E4typeEOSG_:
.LFB7910:
	.cfi_startproc
	endbr64
	push	rbp
	.cfi_def_cfa_offset 16
	.cfi_offset 6, -16
	mov	rbp, rsp
	.cfi_def_cfa_register 6
	mov	QWORD PTR -8[rbp], rdi
	mov	rax, QWORD PTR -8[rbp]
	pop	rbp
	.cfi_def_cfa 7, 8
	ret
	.cfi_endproc
.LFE7910:
	.size	_ZSt4moveIRSaISt13_Rb_tree_nodeISt4pairIKNSt7__cxx1112basic_stringIcSt11char_traitsIcESaIcEEEPFvvEEEEEONSt16remove_referenceIT_E4typeEOSG_, .-_ZSt4moveIRSaISt13_Rb_tree_nodeISt4pairIKNSt7__cxx1112basic_stringIcSt11char_traitsIcESaIcEEEPFvvEEEEEONSt16remove_referenceIT_E4typeEOSG_
	.section	.text._ZNSaISt13_Rb_tree_nodeISt4pairIKNSt7__cxx1112basic_stringIcSt11char_traitsIcESaIcEEEPFvvEEEEC2ERKSC_,"axG",@progbits,_ZNSaISt13_Rb_tree_nodeISt4pairIKNSt7__cxx1112basic_stringIcSt11char_traitsIcESaIcEEEPFvvEEEEC5ERKSC_,comdat
	.align 2
	.weak	_ZNSaISt13_Rb_tree_nodeISt4pairIKNSt7__cxx1112basic_stringIcSt11char_traitsIcESaIcEEEPFvvEEEEC2ERKSC_
	.type	_ZNSaISt13_Rb_tree_nodeISt4pairIKNSt7__cxx1112basic_stringIcSt11char_traitsIcESaIcEEEPFvvEEEEC2ERKSC_, @function
_ZNSaISt13_Rb_tree_nodeISt4pairIKNSt7__cxx1112basic_stringIcSt11char_traitsIcESaIcEEEPFvvEEEEC2ERKSC_:
.LFB7912:
	.cfi_startproc
	endbr64
	push	rbp
	.cfi_def_cfa_offset 16
	.cfi_offset 6, -16
	mov	rbp, rsp
	.cfi_def_cfa_register 6
	sub	rsp, 16
	mov	QWORD PTR -8[rbp], rdi
	mov	QWORD PTR -16[rbp], rsi
	mov	rdx, QWORD PTR -16[rbp]
	mov	rax, QWORD PTR -8[rbp]
	mov	rsi, rdx
	mov	rdi, rax
	call	_ZNSt15__new_allocatorISt13_Rb_tree_nodeISt4pairIKNSt7__cxx1112basic_stringIcSt11char_traitsIcESaIcEEEPFvvEEEEC2ERKSD_
	nop
	leave
	.cfi_def_cfa 7, 8
	ret
	.cfi_endproc
.LFE7912:
	.size	_ZNSaISt13_Rb_tree_nodeISt4pairIKNSt7__cxx1112basic_stringIcSt11char_traitsIcESaIcEEEPFvvEEEEC2ERKSC_, .-_ZNSaISt13_Rb_tree_nodeISt4pairIKNSt7__cxx1112basic_stringIcSt11char_traitsIcESaIcEEEPFvvEEEEC2ERKSC_
	.weak	_ZNSaISt13_Rb_tree_nodeISt4pairIKNSt7__cxx1112basic_stringIcSt11char_traitsIcESaIcEEEPFvvEEEEC1ERKSC_
	.set	_ZNSaISt13_Rb_tree_nodeISt4pairIKNSt7__cxx1112basic_stringIcSt11char_traitsIcESaIcEEEPFvvEEEEC1ERKSC_,_ZNSaISt13_Rb_tree_nodeISt4pairIKNSt7__cxx1112basic_stringIcSt11char_traitsIcESaIcEEEPFvvEEEEC2ERKSC_
	.section	.text._ZNSt20_Rb_tree_key_compareISt4lessINSt7__cxx1112basic_stringIcSt11char_traitsIcESaIcEEEEEC2ERKS7_,"axG",@progbits,_ZNSt20_Rb_tree_key_compareISt4lessINSt7__cxx1112basic_stringIcSt11char_traitsIcESaIcEEEEEC5ERKS7_,comdat
	.align 2
	.weak	_ZNSt20_Rb_tree_key_compareISt4lessINSt7__cxx1112basic_stringIcSt11char_traitsIcESaIcEEEEEC2ERKS7_
	.type	_ZNSt20_Rb_tree_key_compareISt4lessINSt7__cxx1112basic_stringIcSt11char_traitsIcESaIcEEEEEC2ERKS7_, @function
_ZNSt20_Rb_tree_key_compareISt4lessINSt7__cxx1112basic_stringIcSt11char_traitsIcESaIcEEEEEC2ERKS7_:
.LFB7915:
	.cfi_startproc
	endbr64
	push	rbp
	.cfi_def_cfa_offset 16
	.cfi_offset 6, -16
	mov	rbp, rsp
	.cfi_def_cfa_register 6
	mov	QWORD PTR -8[rbp], rdi
	mov	QWORD PTR -16[rbp], rsi
	nop
	pop	rbp
	.cfi_def_cfa 7, 8
	ret
	.cfi_endproc
.LFE7915:
	.size	_ZNSt20_Rb_tree_key_compareISt4lessINSt7__cxx1112basic_stringIcSt11char_traitsIcESaIcEEEEEC2ERKS7_, .-_ZNSt20_Rb_tree_key_compareISt4lessINSt7__cxx1112basic_stringIcSt11char_traitsIcESaIcEEEEEC2ERKS7_
	.weak	_ZNSt20_Rb_tree_key_compareISt4lessINSt7__cxx1112basic_stringIcSt11char_traitsIcESaIcEEEEEC1ERKS7_
	.set	_ZNSt20_Rb_tree_key_compareISt4lessINSt7__cxx1112basic_stringIcSt11char_traitsIcESaIcEEEEEC1ERKS7_,_ZNSt20_Rb_tree_key_compareISt4lessINSt7__cxx1112basic_stringIcSt11char_traitsIcESaIcEEEEEC2ERKS7_
	.section	.text._ZNSt8_Rb_treeINSt7__cxx1112basic_stringIcSt11char_traitsIcESaIcEEESt4pairIKS5_PFvvEESt10_Select1stISA_ESt4lessIS5_ESaISA_EE8_S_rightEPSt18_Rb_tree_node_base,"axG",@progbits,_ZNSt8_Rb_treeINSt7__cxx1112basic_stringIcSt11char_traitsIcESaIcEEESt4pairIKS5_PFvvEESt10_Select1stISA_ESt4lessIS5_ESaISA_EE8_S_rightEPSt18_Rb_tree_node_base,comdat
	.weak	_ZNSt8_Rb_treeINSt7__cxx1112basic_stringIcSt11char_traitsIcESaIcEEESt4pairIKS5_PFvvEESt10_Select1stISA_ESt4lessIS5_ESaISA_EE8_S_rightEPSt18_Rb_tree_node_base
	.type	_ZNSt8_Rb_treeINSt7__cxx1112basic_stringIcSt11char_traitsIcESaIcEEESt4pairIKS5_PFvvEESt10_Select1stISA_ESt4lessIS5_ESaISA_EE8_S_rightEPSt18_Rb_tree_node_base, @function
_ZNSt8_Rb_treeINSt7__cxx1112basic_stringIcSt11char_traitsIcESaIcEEESt4pairIKS5_PFvvEESt10_Select1stISA_ESt4lessIS5_ESaISA_EE8_S_rightEPSt18_Rb_tree_node_base:
.LFB7917:
	.cfi_startproc
	endbr64
	push	rbp
	.cfi_def_cfa_offset 16
	.cfi_offset 6, -16
	mov	rbp, rsp
	.cfi_def_cfa_register 6
	mov	QWORD PTR -8[rbp], rdi
	mov	rax, QWORD PTR -8[rbp]
	mov	rax, QWORD PTR 24[rax]
	pop	rbp
	.cfi_def_cfa 7, 8
	ret
	.cfi_endproc
.LFE7917:
	.size	_ZNSt8_Rb_treeINSt7__cxx1112basic_stringIcSt11char_traitsIcESaIcEEESt4pairIKS5_PFvvEESt10_Select1stISA_ESt4lessIS5_ESaISA_EE8_S_rightEPSt18_Rb_tree_node_base, .-_ZNSt8_Rb_treeINSt7__cxx1112basic_stringIcSt11char_traitsIcESaIcEEESt4pairIKS5_PFvvEESt10_Select1stISA_ESt4lessIS5_ESaISA_EE8_S_rightEPSt18_Rb_tree_node_base
	.section	.text._ZNSt8_Rb_treeINSt7__cxx1112basic_stringIcSt11char_traitsIcESaIcEEESt4pairIKS5_PFvvEESt10_Select1stISA_ESt4lessIS5_ESaISA_EE7_S_leftEPSt18_Rb_tree_node_base,"axG",@progbits,_ZNSt8_Rb_treeINSt7__cxx1112basic_stringIcSt11char_traitsIcESaIcEEESt4pairIKS5_PFvvEESt10_Select1stISA_ESt4lessIS5_ESaISA_EE7_S_leftEPSt18_Rb_tree_node_base,comdat
	.weak	_ZNSt8_Rb_treeINSt7__cxx1112basic_stringIcSt11char_traitsIcESaIcEEESt4pairIKS5_PFvvEESt10_Select1stISA_ESt4lessIS5_ESaISA_EE7_S_leftEPSt18_Rb_tree_node_base
	.type	_ZNSt8_Rb_treeINSt7__cxx1112basic_stringIcSt11char_traitsIcESaIcEEESt4pairIKS5_PFvvEESt10_Select1stISA_ESt4lessIS5_ESaISA_EE7_S_leftEPSt18_Rb_tree_node_base, @function
_ZNSt8_Rb_treeINSt7__cxx1112basic_stringIcSt11char_traitsIcESaIcEEESt4pairIKS5_PFvvEESt10_Select1stISA_ESt4lessIS5_ESaISA_EE7_S_leftEPSt18_Rb_tree_node_base:
.LFB7918:
	.cfi_startproc
	endbr64
	push	rbp
	.cfi_def_cfa_offset 16
	.cfi_offset 6, -16
	mov	rbp, rsp
	.cfi_def_cfa_register 6
	mov	QWORD PTR -8[rbp], rdi
	mov	rax, QWORD PTR -8[rbp]
	mov	rax, QWORD PTR 16[rax]
	pop	rbp
	.cfi_def_cfa 7, 8
	ret
	.cfi_endproc
.LFE7918:
	.size	_ZNSt8_Rb_treeINSt7__cxx1112basic_stringIcSt11char_traitsIcESaIcEEESt4pairIKS5_PFvvEESt10_Select1stISA_ESt4lessIS5_ESaISA_EE7_S_leftEPSt18_Rb_tree_node_base, .-_ZNSt8_Rb_treeINSt7__cxx1112basic_stringIcSt11char_traitsIcESaIcEEESt4pairIKS5_PFvvEESt10_Select1stISA_ESt4lessIS5_ESaISA_EE7_S_leftEPSt18_Rb_tree_node_base
	.section	.text._ZNSt8_Rb_treeINSt7__cxx1112basic_stringIcSt11char_traitsIcESaIcEEESt4pairIKS5_PFvvEESt10_Select1stISA_ESt4lessIS5_ESaISA_EE12_M_drop_nodeEPSt13_Rb_tree_nodeISA_E,"axG",@progbits,_ZNSt8_Rb_treeINSt7__cxx1112basic_stringIcSt11char_traitsIcESaIcEEESt4pairIKS5_PFvvEESt10_Select1stISA_ESt4lessIS5_ESaISA_EE12_M_drop_nodeEPSt13_Rb_tree_nodeISA_E,comdat
	.align 2
	.weak	_ZNSt8_Rb_treeINSt7__cxx1112basic_stringIcSt11char_traitsIcESaIcEEESt4pairIKS5_PFvvEESt10_Select1stISA_ESt4lessIS5_ESaISA_EE12_M_drop_nodeEPSt13_Rb_tree_nodeISA_E
	.type	_ZNSt8_Rb_treeINSt7__cxx1112basic_stringIcSt11char_traitsIcESaIcEEESt4pairIKS5_PFvvEESt10_Select1stISA_ESt4lessIS5_ESaISA_EE12_M_drop_nodeEPSt13_Rb_tree_nodeISA_E, @function
_ZNSt8_Rb_treeINSt7__cxx1112basic_stringIcSt11char_traitsIcESaIcEEESt4pairIKS5_PFvvEESt10_Select1stISA_ESt4lessIS5_ESaISA_EE12_M_drop_nodeEPSt13_Rb_tree_nodeISA_E:
.LFB7919:
	.cfi_startproc
	endbr64
	push	rbp
	.cfi_def_cfa_offset 16
	.cfi_offset 6, -16
	mov	rbp, rsp
	.cfi_def_cfa_register 6
	sub	rsp, 16
	mov	QWORD PTR -8[rbp], rdi
	mov	QWORD PTR -16[rbp], rsi
	mov	rdx, QWORD PTR -16[rbp]
	mov	rax, QWORD PTR -8[rbp]
	mov	rsi, rdx
	mov	rdi, rax
	call	_ZNSt8_Rb_treeINSt7__cxx1112basic_stringIcSt11char_traitsIcESaIcEEESt4pairIKS5_PFvvEESt10_Select1stISA_ESt4lessIS5_ESaISA_EE15_M_destroy_nodeEPSt13_Rb_tree_nodeISA_E
	mov	rdx, QWORD PTR -16[rbp]
	mov	rax, QWORD PTR -8[rbp]
	mov	rsi, rdx
	mov	rdi, rax
	call	_ZNSt8_Rb_treeINSt7__cxx1112basic_stringIcSt11char_traitsIcESaIcEEESt4pairIKS5_PFvvEESt10_Select1stISA_ESt4lessIS5_ESaISA_EE11_M_put_nodeEPSt13_Rb_tree_nodeISA_E
	nop
	leave
	.cfi_def_cfa 7, 8
	ret
	.cfi_endproc
.LFE7919:
	.size	_ZNSt8_Rb_treeINSt7__cxx1112basic_stringIcSt11char_traitsIcESaIcEEESt4pairIKS5_PFvvEESt10_Select1stISA_ESt4lessIS5_ESaISA_EE12_M_drop_nodeEPSt13_Rb_tree_nodeISA_E, .-_ZNSt8_Rb_treeINSt7__cxx1112basic_stringIcSt11char_traitsIcESaIcEEESt4pairIKS5_PFvvEESt10_Select1stISA_ESt4lessIS5_ESaISA_EE12_M_drop_nodeEPSt13_Rb_tree_nodeISA_E
	.section	.text._ZNKSt8_Rb_treeINSt7__cxx1112basic_stringIcSt11char_traitsIcESaIcEEESt4pairIKS5_PFvvEESt10_Select1stISA_ESt4lessIS5_ESaISA_EE9_M_mbeginEv,"axG",@progbits,_ZNKSt8_Rb_treeINSt7__cxx1112basic_stringIcSt11char_traitsIcESaIcEEESt4pairIKS5_PFvvEESt10_Select1stISA_ESt4lessIS5_ESaISA_EE9_M_mbeginEv,comdat
	.align 2
	.weak	_ZNKSt8_Rb_treeINSt7__cxx1112basic_stringIcSt11char_traitsIcESaIcEEESt4pairIKS5_PFvvEESt10_Select1stISA_ESt4lessIS5_ESaISA_EE9_M_mbeginEv
	.type	_ZNKSt8_Rb_treeINSt7__cxx1112basic_stringIcSt11char_traitsIcESaIcEEESt4pairIKS5_PFvvEESt10_Select1stISA_ESt4lessIS5_ESaISA_EE9_M_mbeginEv, @function
_ZNKSt8_Rb_treeINSt7__cxx1112basic_stringIcSt11char_traitsIcESaIcEEESt4pairIKS5_PFvvEESt10_Select1stISA_ESt4lessIS5_ESaISA_EE9_M_mbeginEv:
.LFB7920:
	.cfi_startproc
	endbr64
	push	rbp
	.cfi_def_cfa_offset 16
	.cfi_offset 6, -16
	mov	rbp, rsp
	.cfi_def_cfa_register 6
	mov	QWORD PTR -8[rbp], rdi
	mov	rax, QWORD PTR -8[rbp]
	mov	rax, QWORD PTR 16[rax]
	pop	rbp
	.cfi_def_cfa 7, 8
	ret
	.cfi_endproc
.LFE7920:
	.size	_ZNKSt8_Rb_treeINSt7__cxx1112basic_stringIcSt11char_traitsIcESaIcEEESt4pairIKS5_PFvvEESt10_Select1stISA_ESt4lessIS5_ESaISA_EE9_M_mbeginEv, .-_ZNKSt8_Rb_treeINSt7__cxx1112basic_stringIcSt11char_traitsIcESaIcEEESt4pairIKS5_PFvvEESt10_Select1stISA_ESt4lessIS5_ESaISA_EE9_M_mbeginEv
	.section	.text._ZNSt17_Rb_tree_iteratorISt4pairIKNSt7__cxx1112basic_stringIcSt11char_traitsIcESaIcEEEPFvvEEEC2EPSt18_Rb_tree_node_base,"axG",@progbits,_ZNSt17_Rb_tree_iteratorISt4pairIKNSt7__cxx1112basic_stringIcSt11char_traitsIcESaIcEEEPFvvEEEC5EPSt18_Rb_tree_node_base,comdat
	.align 2
	.weak	_ZNSt17_Rb_tree_iteratorISt4pairIKNSt7__cxx1112basic_stringIcSt11char_traitsIcESaIcEEEPFvvEEEC2EPSt18_Rb_tree_node_base
	.type	_ZNSt17_Rb_tree_iteratorISt4pairIKNSt7__cxx1112basic_stringIcSt11char_traitsIcESaIcEEEPFvvEEEC2EPSt18_Rb_tree_node_base, @function
_ZNSt17_Rb_tree_iteratorISt4pairIKNSt7__cxx1112basic_stringIcSt11char_traitsIcESaIcEEEPFvvEEEC2EPSt18_Rb_tree_node_base:
.LFB7922:
	.cfi_startproc
	endbr64
	push	rbp
	.cfi_def_cfa_offset 16
	.cfi_offset 6, -16
	mov	rbp, rsp
	.cfi_def_cfa_register 6
	mov	QWORD PTR -8[rbp], rdi
	mov	QWORD PTR -16[rbp], rsi
	mov	rax, QWORD PTR -8[rbp]
	mov	rdx, QWORD PTR -16[rbp]
	mov	QWORD PTR [rax], rdx
	nop
	pop	rbp
	.cfi_def_cfa 7, 8
	ret
	.cfi_endproc
.LFE7922:
	.size	_ZNSt17_Rb_tree_iteratorISt4pairIKNSt7__cxx1112basic_stringIcSt11char_traitsIcESaIcEEEPFvvEEEC2EPSt18_Rb_tree_node_base, .-_ZNSt17_Rb_tree_iteratorISt4pairIKNSt7__cxx1112basic_stringIcSt11char_traitsIcESaIcEEEPFvvEEEC2EPSt18_Rb_tree_node_base
	.weak	_ZNSt17_Rb_tree_iteratorISt4pairIKNSt7__cxx1112basic_stringIcSt11char_traitsIcESaIcEEEPFvvEEEC1EPSt18_Rb_tree_node_base
	.set	_ZNSt17_Rb_tree_iteratorISt4pairIKNSt7__cxx1112basic_stringIcSt11char_traitsIcESaIcEEEPFvvEEEC1EPSt18_Rb_tree_node_base,_ZNSt17_Rb_tree_iteratorISt4pairIKNSt7__cxx1112basic_stringIcSt11char_traitsIcESaIcEEEPFvvEEEC2EPSt18_Rb_tree_node_base
	.section	.text._ZNSt8_Rb_treeINSt7__cxx1112basic_stringIcSt11char_traitsIcESaIcEEESt4pairIKS5_PFvvEESt10_Select1stISA_ESt4lessIS5_ESaISA_EE29_M_get_insert_hint_unique_posESt23_Rb_tree_const_iteratorISA_ERS7_,"axG",@progbits,_ZNSt8_Rb_treeINSt7__cxx1112basic_stringIcSt11char_traitsIcESaIcEEESt4pairIKS5_PFvvEESt10_Select1stISA_ESt4lessIS5_ESaISA_EE29_M_get_insert_hint_unique_posESt23_Rb_tree_const_iteratorISA_ERS7_,comdat
	.align 2
	.weak	_ZNSt8_Rb_treeINSt7__cxx1112basic_stringIcSt11char_traitsIcESaIcEEESt4pairIKS5_PFvvEESt10_Select1stISA_ESt4lessIS5_ESaISA_EE29_M_get_insert_hint_unique_posESt23_Rb_tree_const_iteratorISA_ERS7_
	.type	_ZNSt8_Rb_treeINSt7__cxx1112basic_stringIcSt11char_traitsIcESaIcEEESt4pairIKS5_PFvvEESt10_Select1stISA_ESt4lessIS5_ESaISA_EE29_M_get_insert_hint_unique_posESt23_Rb_tree_const_iteratorISA_ERS7_, @function
_ZNSt8_Rb_treeINSt7__cxx1112basic_stringIcSt11char_traitsIcESaIcEEESt4pairIKS5_PFvvEESt10_Select1stISA_ESt4lessIS5_ESaISA_EE29_M_get_insert_hint_unique_posESt23_Rb_tree_const_iteratorISA_ERS7_:
.LFB7924:
	.cfi_startproc
	endbr64
	push	rbp
	.cfi_def_cfa_offset 16
	.cfi_offset 6, -16
	mov	rbp, rsp
	.cfi_def_cfa_register 6
	push	rbx
	sub	rsp, 104
	.cfi_offset 3, -24
	mov	QWORD PTR -88[rbp], rdi
	mov	QWORD PTR -96[rbp], rsi
	mov	QWORD PTR -104[rbp], rdx
	mov	rax, QWORD PTR fs:40
	mov	QWORD PTR -24[rbp], rax
	xor	eax, eax
	lea	rax, -96[rbp]
	mov	rdi, rax
	call	_ZNKSt23_Rb_tree_const_iteratorISt4pairIKNSt7__cxx1112basic_stringIcSt11char_traitsIcESaIcEEEPFvvEEE13_M_const_castEv
	mov	QWORD PTR -72[rbp], rax
	mov	rbx, QWORD PTR -72[rbp]
	mov	rax, QWORD PTR -88[rbp]
	mov	rdi, rax
	call	_ZNSt8_Rb_treeINSt7__cxx1112basic_stringIcSt11char_traitsIcESaIcEEESt4pairIKS5_PFvvEESt10_Select1stISA_ESt4lessIS5_ESaISA_EE6_M_endEv
	cmp	rbx, rax
	sete	al
	test	al, al
	je	.L232
	mov	rax, QWORD PTR -88[rbp]
	mov	rdi, rax
	call	_ZNKSt8_Rb_treeINSt7__cxx1112basic_stringIcSt11char_traitsIcESaIcEEESt4pairIKS5_PFvvEESt10_Select1stISA_ESt4lessIS5_ESaISA_EE4sizeEv
	test	rax, rax
	je	.L233
	mov	rbx, QWORD PTR -88[rbp]
	mov	rax, QWORD PTR -88[rbp]
	mov	rdi, rax
	call	_ZNSt8_Rb_treeINSt7__cxx1112basic_stringIcSt11char_traitsIcESaIcEEESt4pairIKS5_PFvvEESt10_Select1stISA_ESt4lessIS5_ESaISA_EE12_M_rightmostEv
	mov	rax, QWORD PTR [rax]
	mov	rdi, rax
	call	_ZNSt8_Rb_treeINSt7__cxx1112basic_stringIcSt11char_traitsIcESaIcEEESt4pairIKS5_PFvvEESt10_Select1stISA_ESt4lessIS5_ESaISA_EE6_S_keyEPKSt18_Rb_tree_node_base
	mov	rcx, rax
	mov	rax, QWORD PTR -104[rbp]
	mov	rdx, rax
	mov	rsi, rcx
	mov	rdi, rbx
	call	_ZNKSt4lessINSt7__cxx1112basic_stringIcSt11char_traitsIcESaIcEEEEclERKS5_S8_
	test	al, al
	je	.L233
	mov	eax, 1
	jmp	.L234
.L233:
	mov	eax, 0
.L234:
	test	al, al
	je	.L235
	mov	rax, QWORD PTR -88[rbp]
	mov	rdi, rax
	call	_ZNSt8_Rb_treeINSt7__cxx1112basic_stringIcSt11char_traitsIcESaIcEEESt4pairIKS5_PFvvEESt10_Select1stISA_ESt4lessIS5_ESaISA_EE12_M_rightmostEv
	mov	rdx, rax
	mov	QWORD PTR -56[rbp], 0
	lea	rcx, -56[rbp]
	lea	rax, -48[rbp]
	mov	rsi, rcx
	mov	rdi, rax
	call	_ZNSt4pairIPSt18_Rb_tree_node_baseS1_EC1IS1_S1_Lb1EEERKS1_S5_
	mov	rax, QWORD PTR -48[rbp]
	mov	rdx, QWORD PTR -40[rbp]
	jmp	.L247
.L235:
	mov	rdx, QWORD PTR -104[rbp]
	mov	rax, QWORD PTR -88[rbp]
	mov	rsi, rdx
	mov	rdi, rax
	call	_ZNSt8_Rb_treeINSt7__cxx1112basic_stringIcSt11char_traitsIcESaIcEEESt4pairIKS5_PFvvEESt10_Select1stISA_ESt4lessIS5_ESaISA_EE24_M_get_insert_unique_posERS7_
	jmp	.L247
.L232:
	mov	rbx, QWORD PTR -88[rbp]
	mov	rax, QWORD PTR -72[rbp]
	mov	rdi, rax
	call	_ZNSt8_Rb_treeINSt7__cxx1112basic_stringIcSt11char_traitsIcESaIcEEESt4pairIKS5_PFvvEESt10_Select1stISA_ESt4lessIS5_ESaISA_EE6_S_keyEPKSt18_Rb_tree_node_base
	mov	rdx, rax
	mov	rax, QWORD PTR -104[rbp]
	mov	rsi, rax
	mov	rdi, rbx
	call	_ZNKSt4lessINSt7__cxx1112basic_stringIcSt11char_traitsIcESaIcEEEEclERKS5_S8_
	test	al, al
	je	.L237
	mov	rax, QWORD PTR -72[rbp]
	mov	QWORD PTR -64[rbp], rax
	mov	rbx, QWORD PTR -72[rbp]
	mov	rax, QWORD PTR -88[rbp]
	mov	rdi, rax
	call	_ZNSt8_Rb_treeINSt7__cxx1112basic_stringIcSt11char_traitsIcESaIcEEESt4pairIKS5_PFvvEESt10_Select1stISA_ESt4lessIS5_ESaISA_EE11_M_leftmostEv
	mov	rax, QWORD PTR [rax]
	cmp	rbx, rax
	sete	al
	test	al, al
	je	.L238
	mov	rax, QWORD PTR -88[rbp]
	mov	rdi, rax
	call	_ZNSt8_Rb_treeINSt7__cxx1112basic_stringIcSt11char_traitsIcESaIcEEESt4pairIKS5_PFvvEESt10_Select1stISA_ESt4lessIS5_ESaISA_EE11_M_leftmostEv
	mov	rbx, rax
	mov	rax, QWORD PTR -88[rbp]
	mov	rdi, rax
	call	_ZNSt8_Rb_treeINSt7__cxx1112basic_stringIcSt11char_traitsIcESaIcEEESt4pairIKS5_PFvvEESt10_Select1stISA_ESt4lessIS5_ESaISA_EE11_M_leftmostEv
	mov	rcx, rax
	lea	rax, -48[rbp]
	mov	rdx, rbx
	mov	rsi, rcx
	mov	rdi, rax
	call	_ZNSt4pairIPSt18_Rb_tree_node_baseS1_EC1IRS1_S4_Lb1EEEOT_OT0_
	mov	rax, QWORD PTR -48[rbp]
	mov	rdx, QWORD PTR -40[rbp]
	jmp	.L247
.L238:
	mov	rbx, QWORD PTR -88[rbp]
	lea	rax, -64[rbp]
	mov	rdi, rax
	call	_ZNSt17_Rb_tree_iteratorISt4pairIKNSt7__cxx1112basic_stringIcSt11char_traitsIcESaIcEEEPFvvEEEmmEv
	mov	rax, QWORD PTR [rax]
	mov	rdi, rax
	call	_ZNSt8_Rb_treeINSt7__cxx1112basic_stringIcSt11char_traitsIcESaIcEEESt4pairIKS5_PFvvEESt10_Select1stISA_ESt4lessIS5_ESaISA_EE6_S_keyEPKSt18_Rb_tree_node_base
	mov	rcx, rax
	mov	rax, QWORD PTR -104[rbp]
	mov	rdx, rax
	mov	rsi, rcx
	mov	rdi, rbx
	call	_ZNKSt4lessINSt7__cxx1112basic_stringIcSt11char_traitsIcESaIcEEEEclERKS5_S8_
	test	al, al
	je	.L240
	mov	rax, QWORD PTR -64[rbp]
	mov	rdi, rax
	call	_ZNSt8_Rb_treeINSt7__cxx1112basic_stringIcSt11char_traitsIcESaIcEEESt4pairIKS5_PFvvEESt10_Select1stISA_ESt4lessIS5_ESaISA_EE8_S_rightEPSt18_Rb_tree_node_base
	test	rax, rax
	sete	al
	test	al, al
	je	.L241
	mov	QWORD PTR -56[rbp], 0
	lea	rdx, -64[rbp]
	lea	rcx, -56[rbp]
	lea	rax, -48[rbp]
	mov	rsi, rcx
	mov	rdi, rax
	call	_ZNSt4pairIPSt18_Rb_tree_node_baseS1_EC1IS1_S1_Lb1EEERKS1_S5_
	mov	rax, QWORD PTR -48[rbp]
	mov	rdx, QWORD PTR -40[rbp]
	jmp	.L247
.L241:
	lea	rdx, -72[rbp]
	lea	rcx, -72[rbp]
	lea	rax, -48[rbp]
	mov	rsi, rcx
	mov	rdi, rax
	call	_ZNSt4pairIPSt18_Rb_tree_node_baseS1_EC1IRS1_S4_Lb1EEEOT_OT0_
	mov	rax, QWORD PTR -48[rbp]
	mov	rdx, QWORD PTR -40[rbp]
	jmp	.L247
.L240:
	mov	rdx, QWORD PTR -104[rbp]
	mov	rax, QWORD PTR -88[rbp]
	mov	rsi, rdx
	mov	rdi, rax
	call	_ZNSt8_Rb_treeINSt7__cxx1112basic_stringIcSt11char_traitsIcESaIcEEESt4pairIKS5_PFvvEESt10_Select1stISA_ESt4lessIS5_ESaISA_EE24_M_get_insert_unique_posERS7_
	jmp	.L247
.L237:
	mov	rbx, QWORD PTR -88[rbp]
	mov	rax, QWORD PTR -72[rbp]
	mov	rdi, rax
	call	_ZNSt8_Rb_treeINSt7__cxx1112basic_stringIcSt11char_traitsIcESaIcEEESt4pairIKS5_PFvvEESt10_Select1stISA_ESt4lessIS5_ESaISA_EE6_S_keyEPKSt18_Rb_tree_node_base
	mov	rcx, rax
	mov	rax, QWORD PTR -104[rbp]
	mov	rdx, rax
	mov	rsi, rcx
	mov	rdi, rbx
	call	_ZNKSt4lessINSt7__cxx1112basic_stringIcSt11char_traitsIcESaIcEEEEclERKS5_S8_
	test	al, al
	je	.L242
	mov	rax, QWORD PTR -72[rbp]
	mov	QWORD PTR -64[rbp], rax
	mov	rbx, QWORD PTR -72[rbp]
	mov	rax, QWORD PTR -88[rbp]
	mov	rdi, rax
	call	_ZNSt8_Rb_treeINSt7__cxx1112basic_stringIcSt11char_traitsIcESaIcEEESt4pairIKS5_PFvvEESt10_Select1stISA_ESt4lessIS5_ESaISA_EE12_M_rightmostEv
	mov	rax, QWORD PTR [rax]
	cmp	rbx, rax
	sete	al
	test	al, al
	je	.L243
	mov	rax, QWORD PTR -88[rbp]
	mov	rdi, rax
	call	_ZNSt8_Rb_treeINSt7__cxx1112basic_stringIcSt11char_traitsIcESaIcEEESt4pairIKS5_PFvvEESt10_Select1stISA_ESt4lessIS5_ESaISA_EE12_M_rightmostEv
	mov	rdx, rax
	mov	QWORD PTR -56[rbp], 0
	lea	rcx, -56[rbp]
	lea	rax, -48[rbp]
	mov	rsi, rcx
	mov	rdi, rax
	call	_ZNSt4pairIPSt18_Rb_tree_node_baseS1_EC1IS1_S1_Lb1EEERKS1_S5_
	mov	rax, QWORD PTR -48[rbp]
	mov	rdx, QWORD PTR -40[rbp]
	jmp	.L247
.L243:
	mov	rbx, QWORD PTR -88[rbp]
	lea	rax, -64[rbp]
	mov	rdi, rax
	call	_ZNSt17_Rb_tree_iteratorISt4pairIKNSt7__cxx1112basic_stringIcSt11char_traitsIcESaIcEEEPFvvEEEppEv
	mov	rax, QWORD PTR [rax]
	mov	rdi, rax
	call	_ZNSt8_Rb_treeINSt7__cxx1112basic_stringIcSt11char_traitsIcESaIcEEESt4pairIKS5_PFvvEESt10_Select1stISA_ESt4lessIS5_ESaISA_EE6_S_keyEPKSt18_Rb_tree_node_base
	mov	rdx, rax
	mov	rax, QWORD PTR -104[rbp]
	mov	rsi, rax
	mov	rdi, rbx
	call	_ZNKSt4lessINSt7__cxx1112basic_stringIcSt11char_traitsIcESaIcEEEEclERKS5_S8_
	test	al, al
	je	.L245
	mov	rax, QWORD PTR -72[rbp]
	mov	rdi, rax
	call	_ZNSt8_Rb_treeINSt7__cxx1112basic_stringIcSt11char_traitsIcESaIcEEESt4pairIKS5_PFvvEESt10_Select1stISA_ESt4lessIS5_ESaISA_EE8_S_rightEPSt18_Rb_tree_node_base
	test	rax, rax
	sete	al
	test	al, al
	je	.L246
	mov	QWORD PTR -56[rbp], 0
	lea	rdx, -72[rbp]
	lea	rcx, -56[rbp]
	lea	rax, -48[rbp]
	mov	rsi, rcx
	mov	rdi, rax
	call	_ZNSt4pairIPSt18_Rb_tree_node_baseS1_EC1IS1_S1_Lb1EEERKS1_S5_
	mov	rax, QWORD PTR -48[rbp]
	mov	rdx, QWORD PTR -40[rbp]
	jmp	.L247
.L246:
	lea	rdx, -64[rbp]
	lea	rcx, -64[rbp]
	lea	rax, -48[rbp]
	mov	rsi, rcx
	mov	rdi, rax
	call	_ZNSt4pairIPSt18_Rb_tree_node_baseS1_EC1IRS1_S4_Lb1EEEOT_OT0_
	mov	rax, QWORD PTR -48[rbp]
	mov	rdx, QWORD PTR -40[rbp]
	jmp	.L247
.L245:
	mov	rdx, QWORD PTR -104[rbp]
	mov	rax, QWORD PTR -88[rbp]
	mov	rsi, rdx
	mov	rdi, rax
	call	_ZNSt8_Rb_treeINSt7__cxx1112basic_stringIcSt11char_traitsIcESaIcEEESt4pairIKS5_PFvvEESt10_Select1stISA_ESt4lessIS5_ESaISA_EE24_M_get_insert_unique_posERS7_
	jmp	.L247
.L242:
	mov	QWORD PTR -56[rbp], 0
	lea	rdx, -56[rbp]
	lea	rcx, -72[rbp]
	lea	rax, -48[rbp]
	mov	rsi, rcx
	mov	rdi, rax
	call	_ZNSt4pairIPSt18_Rb_tree_node_baseS1_EC1IS1_S1_Lb1EEERKS1_S5_
	mov	rax, QWORD PTR -48[rbp]
	mov	rdx, QWORD PTR -40[rbp]
.L247:
	mov	rcx, QWORD PTR -24[rbp]
	sub	rcx, QWORD PTR fs:40
	je	.L248
	call	__stack_chk_fail@PLT
.L248:
	mov	rbx, QWORD PTR -8[rbp]
	leave
	.cfi_def_cfa 7, 8
	ret
	.cfi_endproc
.LFE7924:
	.size	_ZNSt8_Rb_treeINSt7__cxx1112basic_stringIcSt11char_traitsIcESaIcEEESt4pairIKS5_PFvvEESt10_Select1stISA_ESt4lessIS5_ESaISA_EE29_M_get_insert_hint_unique_posESt23_Rb_tree_const_iteratorISA_ERS7_, .-_ZNSt8_Rb_treeINSt7__cxx1112basic_stringIcSt11char_traitsIcESaIcEEESt4pairIKS5_PFvvEESt10_Select1stISA_ESt4lessIS5_ESaISA_EE29_M_get_insert_hint_unique_posESt23_Rb_tree_const_iteratorISA_ERS7_
	.section	.text._ZNKSt10_Select1stISt4pairIKNSt7__cxx1112basic_stringIcSt11char_traitsIcESaIcEEEPFvvEEEclERKSA_,"axG",@progbits,_ZNKSt10_Select1stISt4pairIKNSt7__cxx1112basic_stringIcSt11char_traitsIcESaIcEEEPFvvEEEclERKSA_,comdat
	.align 2
	.weak	_ZNKSt10_Select1stISt4pairIKNSt7__cxx1112basic_stringIcSt11char_traitsIcESaIcEEEPFvvEEEclERKSA_
	.type	_ZNKSt10_Select1stISt4pairIKNSt7__cxx1112basic_stringIcSt11char_traitsIcESaIcEEEPFvvEEEclERKSA_, @function
_ZNKSt10_Select1stISt4pairIKNSt7__cxx1112basic_stringIcSt11char_traitsIcESaIcEEEPFvvEEEclERKSA_:
.LFB7933:
	.cfi_startproc
	endbr64
	push	rbp
	.cfi_def_cfa_offset 16
	.cfi_offset 6, -16
	mov	rbp, rsp
	.cfi_def_cfa_register 6
	mov	QWORD PTR -8[rbp], rdi
	mov	QWORD PTR -16[rbp], rsi
	mov	rax, QWORD PTR -16[rbp]
	pop	rbp
	.cfi_def_cfa 7, 8
	ret
	.cfi_endproc
.LFE7933:
	.size	_ZNKSt10_Select1stISt4pairIKNSt7__cxx1112basic_stringIcSt11char_traitsIcESaIcEEEPFvvEEEclERKSA_, .-_ZNKSt10_Select1stISt4pairIKNSt7__cxx1112basic_stringIcSt11char_traitsIcESaIcEEEPFvvEEEclERKSA_
	.section	.text._ZSt7forwardIRKSt4pairIKNSt7__cxx1112basic_stringIcSt11char_traitsIcESaIcEEEPFvvEEEOT_RNSt16remove_referenceISD_E4typeE,"axG",@progbits,_ZSt7forwardIRKSt4pairIKNSt7__cxx1112basic_stringIcSt11char_traitsIcESaIcEEEPFvvEEEOT_RNSt16remove_referenceISD_E4typeE,comdat
	.weak	_ZSt7forwardIRKSt4pairIKNSt7__cxx1112basic_stringIcSt11char_traitsIcESaIcEEEPFvvEEEOT_RNSt16remove_referenceISD_E4typeE
	.type	_ZSt7forwardIRKSt4pairIKNSt7__cxx1112basic_stringIcSt11char_traitsIcESaIcEEEPFvvEEEOT_RNSt16remove_referenceISD_E4typeE, @function
_ZSt7forwardIRKSt4pairIKNSt7__cxx1112basic_stringIcSt11char_traitsIcESaIcEEEPFvvEEEOT_RNSt16remove_referenceISD_E4typeE:
.LFB7934:
	.cfi_startproc
	endbr64
	push	rbp
	.cfi_def_cfa_offset 16
	.cfi_offset 6, -16
	mov	rbp, rsp
	.cfi_def_cfa_register 6
	mov	QWORD PTR -8[rbp], rdi
	mov	rax, QWORD PTR -8[rbp]
	pop	rbp
	.cfi_def_cfa 7, 8
	ret
	.cfi_endproc
.LFE7934:
	.size	_ZSt7forwardIRKSt4pairIKNSt7__cxx1112basic_stringIcSt11char_traitsIcESaIcEEEPFvvEEEOT_RNSt16remove_referenceISD_E4typeE, .-_ZSt7forwardIRKSt4pairIKNSt7__cxx1112basic_stringIcSt11char_traitsIcESaIcEEEPFvvEEEOT_RNSt16remove_referenceISD_E4typeE
	.section	.text._ZNSt8_Rb_treeINSt7__cxx1112basic_stringIcSt11char_traitsIcESaIcEEESt4pairIKS5_PFvvEESt10_Select1stISA_ESt4lessIS5_ESaISA_EE10_M_insert_IRKSA_NSG_11_Alloc_nodeEEESt17_Rb_tree_iteratorISA_EPSt18_Rb_tree_node_baseSO_OT_RT0_,"axG",@progbits,_ZNSt8_Rb_treeINSt7__cxx1112basic_stringIcSt11char_traitsIcESaIcEEESt4pairIKS5_PFvvEESt10_Select1stISA_ESt4lessIS5_ESaISA_EE10_M_insert_IRKSA_NSG_11_Alloc_nodeEEESt17_Rb_tree_iteratorISA_EPSt18_Rb_tree_node_baseSO_OT_RT0_,comdat
	.align 2
	.weak	_ZNSt8_Rb_treeINSt7__cxx1112basic_stringIcSt11char_traitsIcESaIcEEESt4pairIKS5_PFvvEESt10_Select1stISA_ESt4lessIS5_ESaISA_EE10_M_insert_IRKSA_NSG_11_Alloc_nodeEEESt17_Rb_tree_iteratorISA_EPSt18_Rb_tree_node_baseSO_OT_RT0_
	.type	_ZNSt8_Rb_treeINSt7__cxx1112basic_stringIcSt11char_traitsIcESaIcEEESt4pairIKS5_PFvvEESt10_Select1stISA_ESt4lessIS5_ESaISA_EE10_M_insert_IRKSA_NSG_11_Alloc_nodeEEESt17_Rb_tree_iteratorISA_EPSt18_Rb_tree_node_baseSO_OT_RT0_, @function
_ZNSt8_Rb_treeINSt7__cxx1112basic_stringIcSt11char_traitsIcESaIcEEESt4pairIKS5_PFvvEESt10_Select1stISA_ESt4lessIS5_ESaISA_EE10_M_insert_IRKSA_NSG_11_Alloc_nodeEEESt17_Rb_tree_iteratorISA_EPSt18_Rb_tree_node_baseSO_OT_RT0_:
.LFB7935:
	.cfi_startproc
	endbr64
	push	rbp
	.cfi_def_cfa_offset 16
	.cfi_offset 6, -16
	mov	rbp, rsp
	.cfi_def_cfa_register 6
	push	r12
	push	rbx
	sub	rsp, 80
	.cfi_offset 12, -24
	.cfi_offset 3, -32
	mov	QWORD PTR -56[rbp], rdi
	mov	QWORD PTR -64[rbp], rsi
	mov	QWORD PTR -72[rbp], rdx
	mov	QWORD PTR -80[rbp], rcx
	mov	QWORD PTR -88[rbp], r8
	mov	rax, QWORD PTR fs:40
	mov	QWORD PTR -24[rbp], rax
	xor	eax, eax
	cmp	QWORD PTR -64[rbp], 0
	jne	.L254
	mov	rax, QWORD PTR -56[rbp]
	mov	rdi, rax
	call	_ZNSt8_Rb_treeINSt7__cxx1112basic_stringIcSt11char_traitsIcESaIcEEESt4pairIKS5_PFvvEESt10_Select1stISA_ESt4lessIS5_ESaISA_EE6_M_endEv
	cmp	QWORD PTR -72[rbp], rax
	je	.L254
	mov	rbx, QWORD PTR -56[rbp]
	mov	rax, QWORD PTR -72[rbp]
	mov	rdi, rax
	call	_ZNSt8_Rb_treeINSt7__cxx1112basic_stringIcSt11char_traitsIcESaIcEEESt4pairIKS5_PFvvEESt10_Select1stISA_ESt4lessIS5_ESaISA_EE6_S_keyEPKSt18_Rb_tree_node_base
	mov	r12, rax
	mov	rdx, QWORD PTR -80[rbp]
	lea	rax, -40[rbp]
	mov	rsi, rdx
	mov	rdi, rax
	call	_ZNKSt10_Select1stISt4pairIKNSt7__cxx1112basic_stringIcSt11char_traitsIcESaIcEEEPFvvEEEclERKSA_
	mov	rdx, r12
	mov	rsi, rax
	mov	rdi, rbx
	call	_ZNKSt4lessINSt7__cxx1112basic_stringIcSt11char_traitsIcESaIcEEEEclERKS5_S8_
	test	al, al
	je	.L255
.L254:
	mov	eax, 1
	jmp	.L256
.L255:
	mov	eax, 0
.L256:
	mov	BYTE PTR -41[rbp], al
	mov	rax, QWORD PTR -80[rbp]
	mov	rdi, rax
	call	_ZSt7forwardIRKSt4pairIKNSt7__cxx1112basic_stringIcSt11char_traitsIcESaIcEEEPFvvEEEOT_RNSt16remove_referenceISD_E4typeE
	mov	rdx, rax
	mov	rax, QWORD PTR -88[rbp]
	mov	rsi, rdx
	mov	rdi, rax
	call	_ZNKSt8_Rb_treeINSt7__cxx1112basic_stringIcSt11char_traitsIcESaIcEEESt4pairIKS5_PFvvEESt10_Select1stISA_ESt4lessIS5_ESaISA_EE11_Alloc_nodeclIRKSA_EEPSt13_Rb_tree_nodeISA_EOT_
	mov	QWORD PTR -32[rbp], rax
	mov	rax, QWORD PTR -56[rbp]
	lea	rcx, 8[rax]
	movzx	eax, BYTE PTR -41[rbp]
	mov	rdx, QWORD PTR -72[rbp]
	mov	rsi, QWORD PTR -32[rbp]
	mov	edi, eax
	call	_ZSt29_Rb_tree_insert_and_rebalancebPSt18_Rb_tree_node_baseS0_RS_@PLT
	mov	rax, QWORD PTR -56[rbp]
	mov	rax, QWORD PTR 40[rax]
	lea	rdx, 1[rax]
	mov	rax, QWORD PTR -56[rbp]
	mov	QWORD PTR 40[rax], rdx
	mov	rdx, QWORD PTR -32[rbp]
	lea	rax, -40[rbp]
	mov	rsi, rdx
	mov	rdi, rax
	call	_ZNSt17_Rb_tree_iteratorISt4pairIKNSt7__cxx1112basic_stringIcSt11char_traitsIcESaIcEEEPFvvEEEC1EPSt18_Rb_tree_node_base
	mov	rax, QWORD PTR -40[rbp]
	mov	rdx, QWORD PTR -24[rbp]
	sub	rdx, QWORD PTR fs:40
	je	.L258
	call	__stack_chk_fail@PLT
.L258:
	add	rsp, 80
	pop	rbx
	pop	r12
	pop	rbp
	.cfi_def_cfa 7, 8
	ret
	.cfi_endproc
.LFE7935:
	.size	_ZNSt8_Rb_treeINSt7__cxx1112basic_stringIcSt11char_traitsIcESaIcEEESt4pairIKS5_PFvvEESt10_Select1stISA_ESt4lessIS5_ESaISA_EE10_M_insert_IRKSA_NSG_11_Alloc_nodeEEESt17_Rb_tree_iteratorISA_EPSt18_Rb_tree_node_baseSO_OT_RT0_, .-_ZNSt8_Rb_treeINSt7__cxx1112basic_stringIcSt11char_traitsIcESaIcEEESt4pairIKS5_PFvvEESt10_Select1stISA_ESt4lessIS5_ESaISA_EE10_M_insert_IRKSA_NSG_11_Alloc_nodeEEESt17_Rb_tree_iteratorISA_EPSt18_Rb_tree_node_baseSO_OT_RT0_
	.section	.text._ZNSt16allocator_traitsISaIhEE8max_sizeERKS0_,"axG",@progbits,_ZNSt16allocator_traitsISaIhEE8max_sizeERKS0_,comdat
	.weak	_ZNSt16allocator_traitsISaIhEE8max_sizeERKS0_
	.type	_ZNSt16allocator_traitsISaIhEE8max_sizeERKS0_, @function
_ZNSt16allocator_traitsISaIhEE8max_sizeERKS0_:
.LFB7956:
	.cfi_startproc
	endbr64
	push	rbp
	.cfi_def_cfa_offset 16
	.cfi_offset 6, -16
	mov	rbp, rsp
	.cfi_def_cfa_register 6
	sub	rsp, 16
	mov	QWORD PTR -8[rbp], rdi
	mov	rax, QWORD PTR -8[rbp]
	mov	rdi, rax
	call	_ZNKSt15__new_allocatorIhE8max_sizeEv
	leave
	.cfi_def_cfa 7, 8
	ret
	.cfi_endproc
.LFE7956:
	.size	_ZNSt16allocator_traitsISaIhEE8max_sizeERKS0_, .-_ZNSt16allocator_traitsISaIhEE8max_sizeERKS0_
	.section	.text._ZSt3minImERKT_S2_S2_,"axG",@progbits,_ZSt3minImERKT_S2_S2_,comdat
	.weak	_ZSt3minImERKT_S2_S2_
	.type	_ZSt3minImERKT_S2_S2_, @function
_ZSt3minImERKT_S2_S2_:
.LFB7957:
	.cfi_startproc
	endbr64
	push	rbp
	.cfi_def_cfa_offset 16
	.cfi_offset 6, -16
	mov	rbp, rsp
	.cfi_def_cfa_register 6
	mov	QWORD PTR -8[rbp], rdi
	mov	QWORD PTR -16[rbp], rsi
	mov	rax, QWORD PTR -16[rbp]
	mov	rdx, QWORD PTR [rax]
	mov	rax, QWORD PTR -8[rbp]
	mov	rax, QWORD PTR [rax]
	cmp	rdx, rax
	jnb	.L262
	mov	rax, QWORD PTR -16[rbp]
	jmp	.L263
.L262:
	mov	rax, QWORD PTR -8[rbp]
.L263:
	pop	rbp
	.cfi_def_cfa 7, 8
	ret
	.cfi_endproc
.LFE7957:
	.size	_ZSt3minImERKT_S2_S2_, .-_ZSt3minImERKT_S2_S2_
	.section	.text._ZNSt27__uninitialized_default_n_1ILb1EE18__uninit_default_nIPhmEET_S3_T0_,"axG",@progbits,_ZNSt27__uninitialized_default_n_1ILb1EE18__uninit_default_nIPhmEET_S3_T0_,comdat
	.weak	_ZNSt27__uninitialized_default_n_1ILb1EE18__uninit_default_nIPhmEET_S3_T0_
	.type	_ZNSt27__uninitialized_default_n_1ILb1EE18__uninit_default_nIPhmEET_S3_T0_, @function
_ZNSt27__uninitialized_default_n_1ILb1EE18__uninit_default_nIPhmEET_S3_T0_:
.LFB7958:
	.cfi_startproc
	endbr64
	push	rbp
	.cfi_def_cfa_offset 16
	.cfi_offset 6, -16
	mov	rbp, rsp
	.cfi_def_cfa_register 6
	sub	rsp, 32
	mov	QWORD PTR -24[rbp], rdi
	mov	QWORD PTR -32[rbp], rsi
	cmp	QWORD PTR -32[rbp], 0
	je	.L265
	mov	rax, QWORD PTR -24[rbp]
	mov	rdi, rax
	call	_ZSt11__addressofIhEPT_RS0_
	mov	QWORD PTR -8[rbp], rax
	mov	rax, QWORD PTR -8[rbp]
	mov	rdi, rax
	call	_ZSt10_ConstructIhJEEvPT_DpOT0_
	add	QWORD PTR -24[rbp], 1
	mov	rax, QWORD PTR -32[rbp]
	lea	rcx, -1[rax]
	mov	rdx, QWORD PTR -8[rbp]
	mov	rax, QWORD PTR -24[rbp]
	mov	rsi, rcx
	mov	rdi, rax
	call	_ZSt6fill_nIPhmhET_S1_T0_RKT1_
	mov	QWORD PTR -24[rbp], rax
.L265:
	mov	rax, QWORD PTR -24[rbp]
	leave
	.cfi_def_cfa 7, 8
	ret
	.cfi_endproc
.LFE7958:
	.size	_ZNSt27__uninitialized_default_n_1ILb1EE18__uninit_default_nIPhmEET_S3_T0_, .-_ZNSt27__uninitialized_default_n_1ILb1EE18__uninit_default_nIPhmEET_S3_T0_
	.section	.text._ZNSt15__new_allocatorIhE8allocateEmPKv,"axG",@progbits,_ZNSt15__new_allocatorIhE8allocateEmPKv,comdat
	.align 2
	.weak	_ZNSt15__new_allocatorIhE8allocateEmPKv
	.type	_ZNSt15__new_allocatorIhE8allocateEmPKv, @function
_ZNSt15__new_allocatorIhE8allocateEmPKv:
.LFB7959:
	.cfi_startproc
	endbr64
	push	rbp
	.cfi_def_cfa_offset 16
	.cfi_offset 6, -16
	mov	rbp, rsp
	.cfi_def_cfa_register 6
	sub	rsp, 32
	mov	QWORD PTR -8[rbp], rdi
	mov	QWORD PTR -16[rbp], rsi
	mov	QWORD PTR -24[rbp], rdx
	mov	rax, QWORD PTR -8[rbp]
	mov	rdi, rax
	call	_ZNKSt15__new_allocatorIhE11_M_max_sizeEv
	cmp	rax, QWORD PTR -16[rbp]
	setb	al
	movzx	eax, al
	test	rax, rax
	setne	al
	test	al, al
	je	.L268
	call	_ZSt17__throw_bad_allocv@PLT
.L268:
	mov	rax, QWORD PTR -16[rbp]
	mov	rdi, rax
	call	_Znwm@PLT
	nop
	leave
	.cfi_def_cfa 7, 8
	ret
	.cfi_endproc
.LFE7959:
	.size	_ZNSt15__new_allocatorIhE8allocateEmPKv, .-_ZNSt15__new_allocatorIhE8allocateEmPKv
	.section	.text._ZSt12__niter_baseIPhET_S1_,"axG",@progbits,_ZSt12__niter_baseIPhET_S1_,comdat
	.weak	_ZSt12__niter_baseIPhET_S1_
	.type	_ZSt12__niter_baseIPhET_S1_, @function
_ZSt12__niter_baseIPhET_S1_:
.LFB7960:
	.cfi_startproc
	endbr64
	push	rbp
	.cfi_def_cfa_offset 16
	.cfi_offset 6, -16
	mov	rbp, rsp
	.cfi_def_cfa_register 6
	mov	QWORD PTR -8[rbp], rdi
	mov	rax, QWORD PTR -8[rbp]
	pop	rbp
	.cfi_def_cfa 7, 8
	ret
	.cfi_endproc
.LFE7960:
	.size	_ZSt12__niter_baseIPhET_S1_, .-_ZSt12__niter_baseIPhET_S1_
	.section	.text._ZSt14__relocate_a_1IhhENSt9enable_ifIXsrSt24__is_bitwise_relocatableIT_vE5valueEPS2_E4typeES4_S4_S4_RSaIT0_E,"axG",@progbits,_ZSt14__relocate_a_1IhhENSt9enable_ifIXsrSt24__is_bitwise_relocatableIT_vE5valueEPS2_E4typeES4_S4_S4_RSaIT0_E,comdat
	.weak	_ZSt14__relocate_a_1IhhENSt9enable_ifIXsrSt24__is_bitwise_relocatableIT_vE5valueEPS2_E4typeES4_S4_S4_RSaIT0_E
	.type	_ZSt14__relocate_a_1IhhENSt9enable_ifIXsrSt24__is_bitwise_relocatableIT_vE5valueEPS2_E4typeES4_S4_S4_RSaIT0_E, @function
_ZSt14__relocate_a_1IhhENSt9enable_ifIXsrSt24__is_bitwise_relocatableIT_vE5valueEPS2_E4typeES4_S4_S4_RSaIT0_E:
.LFB7961:
	.cfi_startproc
	endbr64
	push	rbp
	.cfi_def_cfa_offset 16
	.cfi_offset 6, -16
	mov	rbp, rsp
	.cfi_def_cfa_register 6
	sub	rsp, 48
	mov	QWORD PTR -24[rbp], rdi
	mov	QWORD PTR -32[rbp], rsi
	mov	QWORD PTR -40[rbp], rdx
	mov	QWORD PTR -48[rbp], rcx
	mov	rax, QWORD PTR -32[rbp]
	sub	rax, QWORD PTR -24[rbp]
	mov	QWORD PTR -8[rbp], rax
	cmp	QWORD PTR -8[rbp], 0
	jle	.L273
	mov	rdx, QWORD PTR -8[rbp]
	mov	rcx, QWORD PTR -24[rbp]
	mov	rax, QWORD PTR -40[rbp]
	mov	rsi, rcx
	mov	rdi, rax
	call	memmove@PLT
.L273:
	mov	rdx, QWORD PTR -8[rbp]
	mov	rax, QWORD PTR -40[rbp]
	add	rax, rdx
	leave
	.cfi_def_cfa 7, 8
	ret
	.cfi_endproc
.LFE7961:
	.size	_ZSt14__relocate_a_1IhhENSt9enable_ifIXsrSt24__is_bitwise_relocatableIT_vE5valueEPS2_E4typeES4_S4_S4_RSaIT0_E, .-_ZSt14__relocate_a_1IhhENSt9enable_ifIXsrSt24__is_bitwise_relocatableIT_vE5valueEPS2_E4typeES4_S4_S4_RSaIT0_E
	.section	.text._ZNSt15__new_allocatorISt13_Rb_tree_nodeISt4pairIKNSt7__cxx1112basic_stringIcSt11char_traitsIcESaIcEEEPFvvEEEEC2ERKSD_,"axG",@progbits,_ZNSt15__new_allocatorISt13_Rb_tree_nodeISt4pairIKNSt7__cxx1112basic_stringIcSt11char_traitsIcESaIcEEEPFvvEEEEC5ERKSD_,comdat
	.align 2
	.weak	_ZNSt15__new_allocatorISt13_Rb_tree_nodeISt4pairIKNSt7__cxx1112basic_stringIcSt11char_traitsIcESaIcEEEPFvvEEEEC2ERKSD_
	.type	_ZNSt15__new_allocatorISt13_Rb_tree_nodeISt4pairIKNSt7__cxx1112basic_stringIcSt11char_traitsIcESaIcEEEPFvvEEEEC2ERKSD_, @function
_ZNSt15__new_allocatorISt13_Rb_tree_nodeISt4pairIKNSt7__cxx1112basic_stringIcSt11char_traitsIcESaIcEEEPFvvEEEEC2ERKSD_:
.LFB7963:
	.cfi_startproc
	endbr64
	push	rbp
	.cfi_def_cfa_offset 16
	.cfi_offset 6, -16
	mov	rbp, rsp
	.cfi_def_cfa_register 6
	mov	QWORD PTR -8[rbp], rdi
	mov	QWORD PTR -16[rbp], rsi
	nop
	pop	rbp
	.cfi_def_cfa 7, 8
	ret
	.cfi_endproc
.LFE7963:
	.size	_ZNSt15__new_allocatorISt13_Rb_tree_nodeISt4pairIKNSt7__cxx1112basic_stringIcSt11char_traitsIcESaIcEEEPFvvEEEEC2ERKSD_, .-_ZNSt15__new_allocatorISt13_Rb_tree_nodeISt4pairIKNSt7__cxx1112basic_stringIcSt11char_traitsIcESaIcEEEPFvvEEEEC2ERKSD_
	.weak	_ZNSt15__new_allocatorISt13_Rb_tree_nodeISt4pairIKNSt7__cxx1112basic_stringIcSt11char_traitsIcESaIcEEEPFvvEEEEC1ERKSD_
	.set	_ZNSt15__new_allocatorISt13_Rb_tree_nodeISt4pairIKNSt7__cxx1112basic_stringIcSt11char_traitsIcESaIcEEEPFvvEEEEC1ERKSD_,_ZNSt15__new_allocatorISt13_Rb_tree_nodeISt4pairIKNSt7__cxx1112basic_stringIcSt11char_traitsIcESaIcEEEPFvvEEEEC2ERKSD_
	.section	.text._ZNSt8_Rb_treeINSt7__cxx1112basic_stringIcSt11char_traitsIcESaIcEEESt4pairIKS5_PFvvEESt10_Select1stISA_ESt4lessIS5_ESaISA_EE15_M_destroy_nodeEPSt13_Rb_tree_nodeISA_E,"axG",@progbits,_ZNSt8_Rb_treeINSt7__cxx1112basic_stringIcSt11char_traitsIcESaIcEEESt4pairIKS5_PFvvEESt10_Select1stISA_ESt4lessIS5_ESaISA_EE15_M_destroy_nodeEPSt13_Rb_tree_nodeISA_E,comdat
	.align 2
	.weak	_ZNSt8_Rb_treeINSt7__cxx1112basic_stringIcSt11char_traitsIcESaIcEEESt4pairIKS5_PFvvEESt10_Select1stISA_ESt4lessIS5_ESaISA_EE15_M_destroy_nodeEPSt13_Rb_tree_nodeISA_E
	.type	_ZNSt8_Rb_treeINSt7__cxx1112basic_stringIcSt11char_traitsIcESaIcEEESt4pairIKS5_PFvvEESt10_Select1stISA_ESt4lessIS5_ESaISA_EE15_M_destroy_nodeEPSt13_Rb_tree_nodeISA_E, @function
_ZNSt8_Rb_treeINSt7__cxx1112basic_stringIcSt11char_traitsIcESaIcEEESt4pairIKS5_PFvvEESt10_Select1stISA_ESt4lessIS5_ESaISA_EE15_M_destroy_nodeEPSt13_Rb_tree_nodeISA_E:
.LFB7965:
	.cfi_startproc
	endbr64
	push	rbp
	.cfi_def_cfa_offset 16
	.cfi_offset 6, -16
	mov	rbp, rsp
	.cfi_def_cfa_register 6
	push	rbx
	sub	rsp, 24
	.cfi_offset 3, -24
	mov	QWORD PTR -24[rbp], rdi
	mov	QWORD PTR -32[rbp], rsi
	mov	rax, QWORD PTR -32[rbp]
	mov	rdi, rax
	call	_ZNSt13_Rb_tree_nodeISt4pairIKNSt7__cxx1112basic_stringIcSt11char_traitsIcESaIcEEEPFvvEEE9_M_valptrEv
	mov	rbx, rax
	mov	rax, QWORD PTR -24[rbp]
	mov	rdi, rax
	call	_ZNSt8_Rb_treeINSt7__cxx1112basic_stringIcSt11char_traitsIcESaIcEEESt4pairIKS5_PFvvEESt10_Select1stISA_ESt4lessIS5_ESaISA_EE21_M_get_Node_allocatorEv
	mov	rsi, rbx
	mov	rdi, rax
	call	_ZNSt16allocator_traitsISaISt13_Rb_tree_nodeISt4pairIKNSt7__cxx1112basic_stringIcSt11char_traitsIcESaIcEEEPFvvEEEEE7destroyISB_EEvRSD_PT_
	nop
	mov	rbx, QWORD PTR -8[rbp]
	leave
	.cfi_def_cfa 7, 8
	ret
	.cfi_endproc
.LFE7965:
	.size	_ZNSt8_Rb_treeINSt7__cxx1112basic_stringIcSt11char_traitsIcESaIcEEESt4pairIKS5_PFvvEESt10_Select1stISA_ESt4lessIS5_ESaISA_EE15_M_destroy_nodeEPSt13_Rb_tree_nodeISA_E, .-_ZNSt8_Rb_treeINSt7__cxx1112basic_stringIcSt11char_traitsIcESaIcEEESt4pairIKS5_PFvvEESt10_Select1stISA_ESt4lessIS5_ESaISA_EE15_M_destroy_nodeEPSt13_Rb_tree_nodeISA_E
	.section	.text._ZNSt8_Rb_treeINSt7__cxx1112basic_stringIcSt11char_traitsIcESaIcEEESt4pairIKS5_PFvvEESt10_Select1stISA_ESt4lessIS5_ESaISA_EE11_M_put_nodeEPSt13_Rb_tree_nodeISA_E,"axG",@progbits,_ZNSt8_Rb_treeINSt7__cxx1112basic_stringIcSt11char_traitsIcESaIcEEESt4pairIKS5_PFvvEESt10_Select1stISA_ESt4lessIS5_ESaISA_EE11_M_put_nodeEPSt13_Rb_tree_nodeISA_E,comdat
	.align 2
	.weak	_ZNSt8_Rb_treeINSt7__cxx1112basic_stringIcSt11char_traitsIcESaIcEEESt4pairIKS5_PFvvEESt10_Select1stISA_ESt4lessIS5_ESaISA_EE11_M_put_nodeEPSt13_Rb_tree_nodeISA_E
	.type	_ZNSt8_Rb_treeINSt7__cxx1112basic_stringIcSt11char_traitsIcESaIcEEESt4pairIKS5_PFvvEESt10_Select1stISA_ESt4lessIS5_ESaISA_EE11_M_put_nodeEPSt13_Rb_tree_nodeISA_E, @function
_ZNSt8_Rb_treeINSt7__cxx1112basic_stringIcSt11char_traitsIcESaIcEEESt4pairIKS5_PFvvEESt10_Select1stISA_ESt4lessIS5_ESaISA_EE11_M_put_nodeEPSt13_Rb_tree_nodeISA_E:
.LFB7967:
	.cfi_startproc
	.cfi_personality 0x9b,DW.ref.__gxx_personality_v0
	.cfi_lsda 0x1b,.LLSDA7967
	endbr64
	push	rbp
	.cfi_def_cfa_offset 16
	.cfi_offset 6, -16
	mov	rbp, rsp
	.cfi_def_cfa_register 6
	sub	rsp, 16
	mov	QWORD PTR -8[rbp], rdi
	mov	QWORD PTR -16[rbp], rsi
	mov	rax, QWORD PTR -8[rbp]
	mov	rdi, rax
	call	_ZNSt8_Rb_treeINSt7__cxx1112basic_stringIcSt11char_traitsIcESaIcEEESt4pairIKS5_PFvvEESt10_Select1stISA_ESt4lessIS5_ESaISA_EE21_M_get_Node_allocatorEv
	mov	rcx, rax
	mov	rax, QWORD PTR -16[rbp]
	mov	edx, 1
	mov	rsi, rax
	mov	rdi, rcx
	call	_ZNSt16allocator_traitsISaISt13_Rb_tree_nodeISt4pairIKNSt7__cxx1112basic_stringIcSt11char_traitsIcESaIcEEEPFvvEEEEE10deallocateERSD_PSC_m
	nop
	leave
	.cfi_def_cfa 7, 8
	ret
	.cfi_endproc
.LFE7967:
	.section	.gcc_except_table
.LLSDA7967:
	.byte	0xff
	.byte	0xff
	.byte	0x1
	.uleb128 .LLSDACSE7967-.LLSDACSB7967
.LLSDACSB7967:
.LLSDACSE7967:
	.section	.text._ZNSt8_Rb_treeINSt7__cxx1112basic_stringIcSt11char_traitsIcESaIcEEESt4pairIKS5_PFvvEESt10_Select1stISA_ESt4lessIS5_ESaISA_EE11_M_put_nodeEPSt13_Rb_tree_nodeISA_E,"axG",@progbits,_ZNSt8_Rb_treeINSt7__cxx1112basic_stringIcSt11char_traitsIcESaIcEEESt4pairIKS5_PFvvEESt10_Select1stISA_ESt4lessIS5_ESaISA_EE11_M_put_nodeEPSt13_Rb_tree_nodeISA_E,comdat
	.size	_ZNSt8_Rb_treeINSt7__cxx1112basic_stringIcSt11char_traitsIcESaIcEEESt4pairIKS5_PFvvEESt10_Select1stISA_ESt4lessIS5_ESaISA_EE11_M_put_nodeEPSt13_Rb_tree_nodeISA_E, .-_ZNSt8_Rb_treeINSt7__cxx1112basic_stringIcSt11char_traitsIcESaIcEEESt4pairIKS5_PFvvEESt10_Select1stISA_ESt4lessIS5_ESaISA_EE11_M_put_nodeEPSt13_Rb_tree_nodeISA_E
	.section	.text._ZNKSt23_Rb_tree_const_iteratorISt4pairIKNSt7__cxx1112basic_stringIcSt11char_traitsIcESaIcEEEPFvvEEE13_M_const_castEv,"axG",@progbits,_ZNKSt23_Rb_tree_const_iteratorISt4pairIKNSt7__cxx1112basic_stringIcSt11char_traitsIcESaIcEEEPFvvEEE13_M_const_castEv,comdat
	.align 2
	.weak	_ZNKSt23_Rb_tree_const_iteratorISt4pairIKNSt7__cxx1112basic_stringIcSt11char_traitsIcESaIcEEEPFvvEEE13_M_const_castEv
	.type	_ZNKSt23_Rb_tree_const_iteratorISt4pairIKNSt7__cxx1112basic_stringIcSt11char_traitsIcESaIcEEEPFvvEEE13_M_const_castEv, @function
_ZNKSt23_Rb_tree_const_iteratorISt4pairIKNSt7__cxx1112basic_stringIcSt11char_traitsIcESaIcEEEPFvvEEE13_M_const_castEv:
.LFB7968:
	.cfi_startproc
	endbr64
	push	rbp
	.cfi_def_cfa_offset 16
	.cfi_offset 6, -16
	mov	rbp, rsp
	.cfi_def_cfa_register 6
	sub	rsp, 32
	mov	QWORD PTR -24[rbp], rdi
	mov	rax, QWORD PTR fs:40
	mov	QWORD PTR -8[rbp], rax
	xor	eax, eax
	mov	rax, QWORD PTR -24[rbp]
	mov	rdx, QWORD PTR [rax]
	lea	rax, -16[rbp]
	mov	rsi, rdx
	mov	rdi, rax
	call	_ZNSt17_Rb_tree_iteratorISt4pairIKNSt7__cxx1112basic_stringIcSt11char_traitsIcESaIcEEEPFvvEEEC1EPSt18_Rb_tree_node_base
	mov	rax, QWORD PTR -16[rbp]
	mov	rdx, QWORD PTR -8[rbp]
	sub	rdx, QWORD PTR fs:40
	je	.L280
	call	__stack_chk_fail@PLT
.L280:
	leave
	.cfi_def_cfa 7, 8
	ret
	.cfi_endproc
.LFE7968:
	.size	_ZNKSt23_Rb_tree_const_iteratorISt4pairIKNSt7__cxx1112basic_stringIcSt11char_traitsIcESaIcEEEPFvvEEE13_M_const_castEv, .-_ZNKSt23_Rb_tree_const_iteratorISt4pairIKNSt7__cxx1112basic_stringIcSt11char_traitsIcESaIcEEEPFvvEEE13_M_const_castEv
	.section	.text._ZNSt8_Rb_treeINSt7__cxx1112basic_stringIcSt11char_traitsIcESaIcEEESt4pairIKS5_PFvvEESt10_Select1stISA_ESt4lessIS5_ESaISA_EE6_M_endEv,"axG",@progbits,_ZNSt8_Rb_treeINSt7__cxx1112basic_stringIcSt11char_traitsIcESaIcEEESt4pairIKS5_PFvvEESt10_Select1stISA_ESt4lessIS5_ESaISA_EE6_M_endEv,comdat
	.align 2
	.weak	_ZNSt8_Rb_treeINSt7__cxx1112basic_stringIcSt11char_traitsIcESaIcEEESt4pairIKS5_PFvvEESt10_Select1stISA_ESt4lessIS5_ESaISA_EE6_M_endEv
	.type	_ZNSt8_Rb_treeINSt7__cxx1112basic_stringIcSt11char_traitsIcESaIcEEESt4pairIKS5_PFvvEESt10_Select1stISA_ESt4lessIS5_ESaISA_EE6_M_endEv, @function
_ZNSt8_Rb_treeINSt7__cxx1112basic_stringIcSt11char_traitsIcESaIcEEESt4pairIKS5_PFvvEESt10_Select1stISA_ESt4lessIS5_ESaISA_EE6_M_endEv:
.LFB7969:
	.cfi_startproc
	endbr64
	push	rbp
	.cfi_def_cfa_offset 16
	.cfi_offset 6, -16
	mov	rbp, rsp
	.cfi_def_cfa_register 6
	mov	QWORD PTR -8[rbp], rdi
	mov	rax, QWORD PTR -8[rbp]
	add	rax, 8
	pop	rbp
	.cfi_def_cfa 7, 8
	ret
	.cfi_endproc
.LFE7969:
	.size	_ZNSt8_Rb_treeINSt7__cxx1112basic_stringIcSt11char_traitsIcESaIcEEESt4pairIKS5_PFvvEESt10_Select1stISA_ESt4lessIS5_ESaISA_EE6_M_endEv, .-_ZNSt8_Rb_treeINSt7__cxx1112basic_stringIcSt11char_traitsIcESaIcEEESt4pairIKS5_PFvvEESt10_Select1stISA_ESt4lessIS5_ESaISA_EE6_M_endEv
	.section	.text._ZNKSt8_Rb_treeINSt7__cxx1112basic_stringIcSt11char_traitsIcESaIcEEESt4pairIKS5_PFvvEESt10_Select1stISA_ESt4lessIS5_ESaISA_EE4sizeEv,"axG",@progbits,_ZNKSt8_Rb_treeINSt7__cxx1112basic_stringIcSt11char_traitsIcESaIcEEESt4pairIKS5_PFvvEESt10_Select1stISA_ESt4lessIS5_ESaISA_EE4sizeEv,comdat
	.align 2
	.weak	_ZNKSt8_Rb_treeINSt7__cxx1112basic_stringIcSt11char_traitsIcESaIcEEESt4pairIKS5_PFvvEESt10_Select1stISA_ESt4lessIS5_ESaISA_EE4sizeEv
	.type	_ZNKSt8_Rb_treeINSt7__cxx1112basic_stringIcSt11char_traitsIcESaIcEEESt4pairIKS5_PFvvEESt10_Select1stISA_ESt4lessIS5_ESaISA_EE4sizeEv, @function
_ZNKSt8_Rb_treeINSt7__cxx1112basic_stringIcSt11char_traitsIcESaIcEEESt4pairIKS5_PFvvEESt10_Select1stISA_ESt4lessIS5_ESaISA_EE4sizeEv:
.LFB7970:
	.cfi_startproc
	endbr64
	push	rbp
	.cfi_def_cfa_offset 16
	.cfi_offset 6, -16
	mov	rbp, rsp
	.cfi_def_cfa_register 6
	mov	QWORD PTR -8[rbp], rdi
	mov	rax, QWORD PTR -8[rbp]
	mov	rax, QWORD PTR 40[rax]
	pop	rbp
	.cfi_def_cfa 7, 8
	ret
	.cfi_endproc
.LFE7970:
	.size	_ZNKSt8_Rb_treeINSt7__cxx1112basic_stringIcSt11char_traitsIcESaIcEEESt4pairIKS5_PFvvEESt10_Select1stISA_ESt4lessIS5_ESaISA_EE4sizeEv, .-_ZNKSt8_Rb_treeINSt7__cxx1112basic_stringIcSt11char_traitsIcESaIcEEESt4pairIKS5_PFvvEESt10_Select1stISA_ESt4lessIS5_ESaISA_EE4sizeEv
	.section	.text._ZNSt8_Rb_treeINSt7__cxx1112basic_stringIcSt11char_traitsIcESaIcEEESt4pairIKS5_PFvvEESt10_Select1stISA_ESt4lessIS5_ESaISA_EE12_M_rightmostEv,"axG",@progbits,_ZNSt8_Rb_treeINSt7__cxx1112basic_stringIcSt11char_traitsIcESaIcEEESt4pairIKS5_PFvvEESt10_Select1stISA_ESt4lessIS5_ESaISA_EE12_M_rightmostEv,comdat
	.align 2
	.weak	_ZNSt8_Rb_treeINSt7__cxx1112basic_stringIcSt11char_traitsIcESaIcEEESt4pairIKS5_PFvvEESt10_Select1stISA_ESt4lessIS5_ESaISA_EE12_M_rightmostEv
	.type	_ZNSt8_Rb_treeINSt7__cxx1112basic_stringIcSt11char_traitsIcESaIcEEESt4pairIKS5_PFvvEESt10_Select1stISA_ESt4lessIS5_ESaISA_EE12_M_rightmostEv, @function
_ZNSt8_Rb_treeINSt7__cxx1112basic_stringIcSt11char_traitsIcESaIcEEESt4pairIKS5_PFvvEESt10_Select1stISA_ESt4lessIS5_ESaISA_EE12_M_rightmostEv:
.LFB7971:
	.cfi_startproc
	endbr64
	push	rbp
	.cfi_def_cfa_offset 16
	.cfi_offset 6, -16
	mov	rbp, rsp
	.cfi_def_cfa_register 6
	mov	QWORD PTR -8[rbp], rdi
	mov	rax, QWORD PTR -8[rbp]
	add	rax, 32
	pop	rbp
	.cfi_def_cfa 7, 8
	ret
	.cfi_endproc
.LFE7971:
	.size	_ZNSt8_Rb_treeINSt7__cxx1112basic_stringIcSt11char_traitsIcESaIcEEESt4pairIKS5_PFvvEESt10_Select1stISA_ESt4lessIS5_ESaISA_EE12_M_rightmostEv, .-_ZNSt8_Rb_treeINSt7__cxx1112basic_stringIcSt11char_traitsIcESaIcEEESt4pairIKS5_PFvvEESt10_Select1stISA_ESt4lessIS5_ESaISA_EE12_M_rightmostEv
	.section	.text._ZNSt8_Rb_treeINSt7__cxx1112basic_stringIcSt11char_traitsIcESaIcEEESt4pairIKS5_PFvvEESt10_Select1stISA_ESt4lessIS5_ESaISA_EE6_S_keyEPKSt18_Rb_tree_node_base,"axG",@progbits,_ZNSt8_Rb_treeINSt7__cxx1112basic_stringIcSt11char_traitsIcESaIcEEESt4pairIKS5_PFvvEESt10_Select1stISA_ESt4lessIS5_ESaISA_EE6_S_keyEPKSt18_Rb_tree_node_base,comdat
	.weak	_ZNSt8_Rb_treeINSt7__cxx1112basic_stringIcSt11char_traitsIcESaIcEEESt4pairIKS5_PFvvEESt10_Select1stISA_ESt4lessIS5_ESaISA_EE6_S_keyEPKSt18_Rb_tree_node_base
	.type	_ZNSt8_Rb_treeINSt7__cxx1112basic_stringIcSt11char_traitsIcESaIcEEESt4pairIKS5_PFvvEESt10_Select1stISA_ESt4lessIS5_ESaISA_EE6_S_keyEPKSt18_Rb_tree_node_base, @function
_ZNSt8_Rb_treeINSt7__cxx1112basic_stringIcSt11char_traitsIcESaIcEEESt4pairIKS5_PFvvEESt10_Select1stISA_ESt4lessIS5_ESaISA_EE6_S_keyEPKSt18_Rb_tree_node_base:
.LFB7972:
	.cfi_startproc
	endbr64
	push	rbp
	.cfi_def_cfa_offset 16
	.cfi_offset 6, -16
	mov	rbp, rsp
	.cfi_def_cfa_register 6
	sub	rsp, 16
	mov	QWORD PTR -8[rbp], rdi
	mov	rax, QWORD PTR -8[rbp]
	mov	rdi, rax
	call	_ZNSt8_Rb_treeINSt7__cxx1112basic_stringIcSt11char_traitsIcESaIcEEESt4pairIKS5_PFvvEESt10_Select1stISA_ESt4lessIS5_ESaISA_EE6_S_keyEPKSt13_Rb_tree_nodeISA_E
	leave
	.cfi_def_cfa 7, 8
	ret
	.cfi_endproc
.LFE7972:
	.size	_ZNSt8_Rb_treeINSt7__cxx1112basic_stringIcSt11char_traitsIcESaIcEEESt4pairIKS5_PFvvEESt10_Select1stISA_ESt4lessIS5_ESaISA_EE6_S_keyEPKSt18_Rb_tree_node_base, .-_ZNSt8_Rb_treeINSt7__cxx1112basic_stringIcSt11char_traitsIcESaIcEEESt4pairIKS5_PFvvEESt10_Select1stISA_ESt4lessIS5_ESaISA_EE6_S_keyEPKSt18_Rb_tree_node_base
	.section	.text._ZNKSt4lessINSt7__cxx1112basic_stringIcSt11char_traitsIcESaIcEEEEclERKS5_S8_,"axG",@progbits,_ZNKSt4lessINSt7__cxx1112basic_stringIcSt11char_traitsIcESaIcEEEEclERKS5_S8_,comdat
	.align 2
	.weak	_ZNKSt4lessINSt7__cxx1112basic_stringIcSt11char_traitsIcESaIcEEEEclERKS5_S8_
	.type	_ZNKSt4lessINSt7__cxx1112basic_stringIcSt11char_traitsIcESaIcEEEEclERKS5_S8_, @function
_ZNKSt4lessINSt7__cxx1112basic_stringIcSt11char_traitsIcESaIcEEEEclERKS5_S8_:
.LFB7973:
	.cfi_startproc
	endbr64
	push	rbp
	.cfi_def_cfa_offset 16
	.cfi_offset 6, -16
	mov	rbp, rsp
	.cfi_def_cfa_register 6
	sub	rsp, 32
	mov	QWORD PTR -8[rbp], rdi
	mov	QWORD PTR -16[rbp], rsi
	mov	QWORD PTR -24[rbp], rdx
	mov	rdx, QWORD PTR -24[rbp]
	mov	rax, QWORD PTR -16[rbp]
	mov	rsi, rdx
	mov	rdi, rax
	call	_ZStltIcSt11char_traitsIcESaIcEEbRKNSt7__cxx1112basic_stringIT_T0_T1_EESA_
	leave
	.cfi_def_cfa 7, 8
	ret
	.cfi_endproc
.LFE7973:
	.size	_ZNKSt4lessINSt7__cxx1112basic_stringIcSt11char_traitsIcESaIcEEEEclERKS5_S8_, .-_ZNKSt4lessINSt7__cxx1112basic_stringIcSt11char_traitsIcESaIcEEEEclERKS5_S8_
	.section	.text._ZNSt4pairIPSt18_Rb_tree_node_baseS1_EC2IS1_S1_Lb1EEERKS1_S5_,"axG",@progbits,_ZNSt4pairIPSt18_Rb_tree_node_baseS1_EC5IS1_S1_Lb1EEERKS1_S5_,comdat
	.align 2
	.weak	_ZNSt4pairIPSt18_Rb_tree_node_baseS1_EC2IS1_S1_Lb1EEERKS1_S5_
	.type	_ZNSt4pairIPSt18_Rb_tree_node_baseS1_EC2IS1_S1_Lb1EEERKS1_S5_, @function
_ZNSt4pairIPSt18_Rb_tree_node_baseS1_EC2IS1_S1_Lb1EEERKS1_S5_:
.LFB7975:
	.cfi_startproc
	endbr64
	push	rbp
	.cfi_def_cfa_offset 16
	.cfi_offset 6, -16
	mov	rbp, rsp
	.cfi_def_cfa_register 6
	mov	QWORD PTR -8[rbp], rdi
	mov	QWORD PTR -16[rbp], rsi
	mov	QWORD PTR -24[rbp], rdx
	mov	rax, QWORD PTR -16[rbp]
	mov	rdx, QWORD PTR [rax]
	mov	rax, QWORD PTR -8[rbp]
	mov	QWORD PTR [rax], rdx
	mov	rax, QWORD PTR -24[rbp]
	mov	rdx, QWORD PTR [rax]
	mov	rax, QWORD PTR -8[rbp]
	mov	QWORD PTR 8[rax], rdx
	nop
	pop	rbp
	.cfi_def_cfa 7, 8
	ret
	.cfi_endproc
.LFE7975:
	.size	_ZNSt4pairIPSt18_Rb_tree_node_baseS1_EC2IS1_S1_Lb1EEERKS1_S5_, .-_ZNSt4pairIPSt18_Rb_tree_node_baseS1_EC2IS1_S1_Lb1EEERKS1_S5_
	.weak	_ZNSt4pairIPSt18_Rb_tree_node_baseS1_EC1IS1_S1_Lb1EEERKS1_S5_
	.set	_ZNSt4pairIPSt18_Rb_tree_node_baseS1_EC1IS1_S1_Lb1EEERKS1_S5_,_ZNSt4pairIPSt18_Rb_tree_node_baseS1_EC2IS1_S1_Lb1EEERKS1_S5_
	.section	.text._ZNSt8_Rb_treeINSt7__cxx1112basic_stringIcSt11char_traitsIcESaIcEEESt4pairIKS5_PFvvEESt10_Select1stISA_ESt4lessIS5_ESaISA_EE24_M_get_insert_unique_posERS7_,"axG",@progbits,_ZNSt8_Rb_treeINSt7__cxx1112basic_stringIcSt11char_traitsIcESaIcEEESt4pairIKS5_PFvvEESt10_Select1stISA_ESt4lessIS5_ESaISA_EE24_M_get_insert_unique_posERS7_,comdat
	.align 2
	.weak	_ZNSt8_Rb_treeINSt7__cxx1112basic_stringIcSt11char_traitsIcESaIcEEESt4pairIKS5_PFvvEESt10_Select1stISA_ESt4lessIS5_ESaISA_EE24_M_get_insert_unique_posERS7_
	.type	_ZNSt8_Rb_treeINSt7__cxx1112basic_stringIcSt11char_traitsIcESaIcEEESt4pairIKS5_PFvvEESt10_Select1stISA_ESt4lessIS5_ESaISA_EE24_M_get_insert_unique_posERS7_, @function
_ZNSt8_Rb_treeINSt7__cxx1112basic_stringIcSt11char_traitsIcESaIcEEESt4pairIKS5_PFvvEESt10_Select1stISA_ESt4lessIS5_ESaISA_EE24_M_get_insert_unique_posERS7_:
.LFB7977:
	.cfi_startproc
	endbr64
	push	rbp
	.cfi_def_cfa_offset 16
	.cfi_offset 6, -16
	mov	rbp, rsp
	.cfi_def_cfa_register 6
	push	rbx
	sub	rsp, 104
	.cfi_offset 3, -24
	mov	QWORD PTR -104[rbp], rdi
	mov	QWORD PTR -112[rbp], rsi
	mov	rax, QWORD PTR fs:40
	mov	QWORD PTR -24[rbp], rax
	xor	eax, eax
	mov	rax, QWORD PTR -104[rbp]
	mov	rdi, rax
	call	_ZNSt8_Rb_treeINSt7__cxx1112basic_stringIcSt11char_traitsIcESaIcEEESt4pairIKS5_PFvvEESt10_Select1stISA_ESt4lessIS5_ESaISA_EE8_M_beginEv
	mov	QWORD PTR -80[rbp], rax
	mov	rax, QWORD PTR -104[rbp]
	mov	rdi, rax
	call	_ZNSt8_Rb_treeINSt7__cxx1112basic_stringIcSt11char_traitsIcESaIcEEESt4pairIKS5_PFvvEESt10_Select1stISA_ESt4lessIS5_ESaISA_EE6_M_endEv
	mov	QWORD PTR -72[rbp], rax
	mov	BYTE PTR -81[rbp], 1
	jmp	.L293
.L296:
	mov	rax, QWORD PTR -80[rbp]
	mov	QWORD PTR -72[rbp], rax
	mov	rbx, QWORD PTR -104[rbp]
	mov	rax, QWORD PTR -80[rbp]
	mov	rdi, rax
	call	_ZNSt8_Rb_treeINSt7__cxx1112basic_stringIcSt11char_traitsIcESaIcEEESt4pairIKS5_PFvvEESt10_Select1stISA_ESt4lessIS5_ESaISA_EE6_S_keyEPKSt13_Rb_tree_nodeISA_E
	mov	rdx, rax
	mov	rax, QWORD PTR -112[rbp]
	mov	rsi, rax
	mov	rdi, rbx
	call	_ZNKSt4lessINSt7__cxx1112basic_stringIcSt11char_traitsIcESaIcEEEEclERKS5_S8_
	mov	BYTE PTR -81[rbp], al
	cmp	BYTE PTR -81[rbp], 0
	je	.L294
	mov	rax, QWORD PTR -80[rbp]
	mov	rdi, rax
	call	_ZNSt8_Rb_treeINSt7__cxx1112basic_stringIcSt11char_traitsIcESaIcEEESt4pairIKS5_PFvvEESt10_Select1stISA_ESt4lessIS5_ESaISA_EE7_S_leftEPSt18_Rb_tree_node_base
	jmp	.L295
.L294:
	mov	rax, QWORD PTR -80[rbp]
	mov	rdi, rax
	call	_ZNSt8_Rb_treeINSt7__cxx1112basic_stringIcSt11char_traitsIcESaIcEEESt4pairIKS5_PFvvEESt10_Select1stISA_ESt4lessIS5_ESaISA_EE8_S_rightEPSt18_Rb_tree_node_base
.L295:
	mov	QWORD PTR -80[rbp], rax
.L293:
	mov	rax, QWORD PTR -80[rbp]
	test	rax, rax
	jne	.L296
	mov	rdx, QWORD PTR -72[rbp]
	lea	rax, -64[rbp]
	mov	rsi, rdx
	mov	rdi, rax
	call	_ZNSt17_Rb_tree_iteratorISt4pairIKNSt7__cxx1112basic_stringIcSt11char_traitsIcESaIcEEEPFvvEEEC1EPSt18_Rb_tree_node_base
	cmp	BYTE PTR -81[rbp], 0
	je	.L297
	mov	rax, QWORD PTR -104[rbp]
	mov	rdi, rax
	call	_ZNSt8_Rb_treeINSt7__cxx1112basic_stringIcSt11char_traitsIcESaIcEEESt4pairIKS5_PFvvEESt10_Select1stISA_ESt4lessIS5_ESaISA_EE5beginEv
	mov	QWORD PTR -48[rbp], rax
	lea	rdx, -48[rbp]
	lea	rax, -64[rbp]
	mov	rsi, rdx
	mov	rdi, rax
	call	_ZSteqRKSt17_Rb_tree_iteratorISt4pairIKNSt7__cxx1112basic_stringIcSt11char_traitsIcESaIcEEEPFvvEEESD_
	test	al, al
	je	.L298
	lea	rdx, -72[rbp]
	lea	rcx, -80[rbp]
	lea	rax, -48[rbp]
	mov	rsi, rcx
	mov	rdi, rax
	call	_ZNSt4pairIPSt18_Rb_tree_node_baseS1_EC1IRPSt13_Rb_tree_nodeIS_IKNSt7__cxx1112basic_stringIcSt11char_traitsIcESaIcEEEPFvvEEERS1_Lb1EEEOT_OT0_
	mov	rax, QWORD PTR -48[rbp]
	mov	rdx, QWORD PTR -40[rbp]
	jmp	.L301
.L298:
	lea	rax, -64[rbp]
	mov	rdi, rax
	call	_ZNSt17_Rb_tree_iteratorISt4pairIKNSt7__cxx1112basic_stringIcSt11char_traitsIcESaIcEEEPFvvEEEmmEv
.L297:
	mov	rbx, QWORD PTR -104[rbp]
	mov	rax, QWORD PTR -64[rbp]
	mov	rdi, rax
	call	_ZNSt8_Rb_treeINSt7__cxx1112basic_stringIcSt11char_traitsIcESaIcEEESt4pairIKS5_PFvvEESt10_Select1stISA_ESt4lessIS5_ESaISA_EE6_S_keyEPKSt18_Rb_tree_node_base
	mov	rcx, rax
	mov	rax, QWORD PTR -112[rbp]
	mov	rdx, rax
	mov	rsi, rcx
	mov	rdi, rbx
	call	_ZNKSt4lessINSt7__cxx1112basic_stringIcSt11char_traitsIcESaIcEEEEclERKS5_S8_
	test	al, al
	je	.L300
	lea	rdx, -72[rbp]
	lea	rcx, -80[rbp]
	lea	rax, -48[rbp]
	mov	rsi, rcx
	mov	rdi, rax
	call	_ZNSt4pairIPSt18_Rb_tree_node_baseS1_EC1IRPSt13_Rb_tree_nodeIS_IKNSt7__cxx1112basic_stringIcSt11char_traitsIcESaIcEEEPFvvEEERS1_Lb1EEEOT_OT0_
	mov	rax, QWORD PTR -48[rbp]
	mov	rdx, QWORD PTR -40[rbp]
	jmp	.L301
.L300:
	mov	QWORD PTR -56[rbp], 0
	lea	rdx, -56[rbp]
	lea	rcx, -64[rbp]
	lea	rax, -48[rbp]
	mov	rsi, rcx
	mov	rdi, rax
	call	_ZNSt4pairIPSt18_Rb_tree_node_baseS1_EC1IS1_S1_Lb1EEERKS1_S5_
	mov	rax, QWORD PTR -48[rbp]
	mov	rdx, QWORD PTR -40[rbp]
.L301:
	mov	rcx, QWORD PTR -24[rbp]
	sub	rcx, QWORD PTR fs:40
	je	.L302
	call	__stack_chk_fail@PLT
.L302:
	mov	rbx, QWORD PTR -8[rbp]
	leave
	.cfi_def_cfa 7, 8
	ret
	.cfi_endproc
.LFE7977:
	.size	_ZNSt8_Rb_treeINSt7__cxx1112basic_stringIcSt11char_traitsIcESaIcEEESt4pairIKS5_PFvvEESt10_Select1stISA_ESt4lessIS5_ESaISA_EE24_M_get_insert_unique_posERS7_, .-_ZNSt8_Rb_treeINSt7__cxx1112basic_stringIcSt11char_traitsIcESaIcEEESt4pairIKS5_PFvvEESt10_Select1stISA_ESt4lessIS5_ESaISA_EE24_M_get_insert_unique_posERS7_
	.section	.text._ZNSt8_Rb_treeINSt7__cxx1112basic_stringIcSt11char_traitsIcESaIcEEESt4pairIKS5_PFvvEESt10_Select1stISA_ESt4lessIS5_ESaISA_EE11_M_leftmostEv,"axG",@progbits,_ZNSt8_Rb_treeINSt7__cxx1112basic_stringIcSt11char_traitsIcESaIcEEESt4pairIKS5_PFvvEESt10_Select1stISA_ESt4lessIS5_ESaISA_EE11_M_leftmostEv,comdat
	.align 2
	.weak	_ZNSt8_Rb_treeINSt7__cxx1112basic_stringIcSt11char_traitsIcESaIcEEESt4pairIKS5_PFvvEESt10_Select1stISA_ESt4lessIS5_ESaISA_EE11_M_leftmostEv
	.type	_ZNSt8_Rb_treeINSt7__cxx1112basic_stringIcSt11char_traitsIcESaIcEEESt4pairIKS5_PFvvEESt10_Select1stISA_ESt4lessIS5_ESaISA_EE11_M_leftmostEv, @function
_ZNSt8_Rb_treeINSt7__cxx1112basic_stringIcSt11char_traitsIcESaIcEEESt4pairIKS5_PFvvEESt10_Select1stISA_ESt4lessIS5_ESaISA_EE11_M_leftmostEv:
.LFB7980:
	.cfi_startproc
	endbr64
	push	rbp
	.cfi_def_cfa_offset 16
	.cfi_offset 6, -16
	mov	rbp, rsp
	.cfi_def_cfa_register 6
	mov	QWORD PTR -8[rbp], rdi
	mov	rax, QWORD PTR -8[rbp]
	add	rax, 24
	pop	rbp
	.cfi_def_cfa 7, 8
	ret
	.cfi_endproc
.LFE7980:
	.size	_ZNSt8_Rb_treeINSt7__cxx1112basic_stringIcSt11char_traitsIcESaIcEEESt4pairIKS5_PFvvEESt10_Select1stISA_ESt4lessIS5_ESaISA_EE11_M_leftmostEv, .-_ZNSt8_Rb_treeINSt7__cxx1112basic_stringIcSt11char_traitsIcESaIcEEESt4pairIKS5_PFvvEESt10_Select1stISA_ESt4lessIS5_ESaISA_EE11_M_leftmostEv
	.section	.text._ZNSt4pairIPSt18_Rb_tree_node_baseS1_EC2IRS1_S4_Lb1EEEOT_OT0_,"axG",@progbits,_ZNSt4pairIPSt18_Rb_tree_node_baseS1_EC5IRS1_S4_Lb1EEEOT_OT0_,comdat
	.align 2
	.weak	_ZNSt4pairIPSt18_Rb_tree_node_baseS1_EC2IRS1_S4_Lb1EEEOT_OT0_
	.type	_ZNSt4pairIPSt18_Rb_tree_node_baseS1_EC2IRS1_S4_Lb1EEEOT_OT0_, @function
_ZNSt4pairIPSt18_Rb_tree_node_baseS1_EC2IRS1_S4_Lb1EEEOT_OT0_:
.LFB7982:
	.cfi_startproc
	endbr64
	push	rbp
	.cfi_def_cfa_offset 16
	.cfi_offset 6, -16
	mov	rbp, rsp
	.cfi_def_cfa_register 6
	sub	rsp, 32
	mov	QWORD PTR -8[rbp], rdi
	mov	QWORD PTR -16[rbp], rsi
	mov	QWORD PTR -24[rbp], rdx
	mov	rax, QWORD PTR -16[rbp]
	mov	rdi, rax
	call	_ZSt7forwardIRPSt18_Rb_tree_node_baseEOT_RNSt16remove_referenceIS3_E4typeE
	mov	rdx, QWORD PTR [rax]
	mov	rax, QWORD PTR -8[rbp]
	mov	QWORD PTR [rax], rdx
	mov	rax, QWORD PTR -24[rbp]
	mov	rdi, rax
	call	_ZSt7forwardIRPSt18_Rb_tree_node_baseEOT_RNSt16remove_referenceIS3_E4typeE
	mov	rdx, QWORD PTR [rax]
	mov	rax, QWORD PTR -8[rbp]
	mov	QWORD PTR 8[rax], rdx
	nop
	leave
	.cfi_def_cfa 7, 8
	ret
	.cfi_endproc
.LFE7982:
	.size	_ZNSt4pairIPSt18_Rb_tree_node_baseS1_EC2IRS1_S4_Lb1EEEOT_OT0_, .-_ZNSt4pairIPSt18_Rb_tree_node_baseS1_EC2IRS1_S4_Lb1EEEOT_OT0_
	.weak	_ZNSt4pairIPSt18_Rb_tree_node_baseS1_EC1IRS1_S4_Lb1EEEOT_OT0_
	.set	_ZNSt4pairIPSt18_Rb_tree_node_baseS1_EC1IRS1_S4_Lb1EEEOT_OT0_,_ZNSt4pairIPSt18_Rb_tree_node_baseS1_EC2IRS1_S4_Lb1EEEOT_OT0_
	.section	.text._ZNSt17_Rb_tree_iteratorISt4pairIKNSt7__cxx1112basic_stringIcSt11char_traitsIcESaIcEEEPFvvEEEmmEv,"axG",@progbits,_ZNSt17_Rb_tree_iteratorISt4pairIKNSt7__cxx1112basic_stringIcSt11char_traitsIcESaIcEEEPFvvEEEmmEv,comdat
	.align 2
	.weak	_ZNSt17_Rb_tree_iteratorISt4pairIKNSt7__cxx1112basic_stringIcSt11char_traitsIcESaIcEEEPFvvEEEmmEv
	.type	_ZNSt17_Rb_tree_iteratorISt4pairIKNSt7__cxx1112basic_stringIcSt11char_traitsIcESaIcEEEPFvvEEEmmEv, @function
_ZNSt17_Rb_tree_iteratorISt4pairIKNSt7__cxx1112basic_stringIcSt11char_traitsIcESaIcEEEPFvvEEEmmEv:
.LFB7984:
	.cfi_startproc
	endbr64
	push	rbp
	.cfi_def_cfa_offset 16
	.cfi_offset 6, -16
	mov	rbp, rsp
	.cfi_def_cfa_register 6
	sub	rsp, 16
	mov	QWORD PTR -8[rbp], rdi
	mov	rax, QWORD PTR -8[rbp]
	mov	rax, QWORD PTR [rax]
	mov	rdi, rax
	call	_ZSt18_Rb_tree_decrementPSt18_Rb_tree_node_base@PLT
	mov	rdx, QWORD PTR -8[rbp]
	mov	QWORD PTR [rdx], rax
	mov	rax, QWORD PTR -8[rbp]
	leave
	.cfi_def_cfa 7, 8
	ret
	.cfi_endproc
.LFE7984:
	.size	_ZNSt17_Rb_tree_iteratorISt4pairIKNSt7__cxx1112basic_stringIcSt11char_traitsIcESaIcEEEPFvvEEEmmEv, .-_ZNSt17_Rb_tree_iteratorISt4pairIKNSt7__cxx1112basic_stringIcSt11char_traitsIcESaIcEEEPFvvEEEmmEv
	.section	.text._ZNSt17_Rb_tree_iteratorISt4pairIKNSt7__cxx1112basic_stringIcSt11char_traitsIcESaIcEEEPFvvEEEppEv,"axG",@progbits,_ZNSt17_Rb_tree_iteratorISt4pairIKNSt7__cxx1112basic_stringIcSt11char_traitsIcESaIcEEEPFvvEEEppEv,comdat
	.align 2
	.weak	_ZNSt17_Rb_tree_iteratorISt4pairIKNSt7__cxx1112basic_stringIcSt11char_traitsIcESaIcEEEPFvvEEEppEv
	.type	_ZNSt17_Rb_tree_iteratorISt4pairIKNSt7__cxx1112basic_stringIcSt11char_traitsIcESaIcEEEPFvvEEEppEv, @function
_ZNSt17_Rb_tree_iteratorISt4pairIKNSt7__cxx1112basic_stringIcSt11char_traitsIcESaIcEEEPFvvEEEppEv:
.LFB7985:
	.cfi_startproc
	endbr64
	push	rbp
	.cfi_def_cfa_offset 16
	.cfi_offset 6, -16
	mov	rbp, rsp
	.cfi_def_cfa_register 6
	sub	rsp, 16
	mov	QWORD PTR -8[rbp], rdi
	mov	rax, QWORD PTR -8[rbp]
	mov	rax, QWORD PTR [rax]
	mov	rdi, rax
	call	_ZSt18_Rb_tree_incrementPSt18_Rb_tree_node_base@PLT
	mov	rdx, QWORD PTR -8[rbp]
	mov	QWORD PTR [rdx], rax
	mov	rax, QWORD PTR -8[rbp]
	leave
	.cfi_def_cfa 7, 8
	ret
	.cfi_endproc
.LFE7985:
	.size	_ZNSt17_Rb_tree_iteratorISt4pairIKNSt7__cxx1112basic_stringIcSt11char_traitsIcESaIcEEEPFvvEEEppEv, .-_ZNSt17_Rb_tree_iteratorISt4pairIKNSt7__cxx1112basic_stringIcSt11char_traitsIcESaIcEEEPFvvEEEppEv
	.section	.text._ZNKSt8_Rb_treeINSt7__cxx1112basic_stringIcSt11char_traitsIcESaIcEEESt4pairIKS5_PFvvEESt10_Select1stISA_ESt4lessIS5_ESaISA_EE11_Alloc_nodeclIRKSA_EEPSt13_Rb_tree_nodeISA_EOT_,"axG",@progbits,_ZNKSt8_Rb_treeINSt7__cxx1112basic_stringIcSt11char_traitsIcESaIcEEESt4pairIKS5_PFvvEESt10_Select1stISA_ESt4lessIS5_ESaISA_EE11_Alloc_nodeclIRKSA_EEPSt13_Rb_tree_nodeISA_EOT_,comdat
	.align 2
	.weak	_ZNKSt8_Rb_treeINSt7__cxx1112basic_stringIcSt11char_traitsIcESaIcEEESt4pairIKS5_PFvvEESt10_Select1stISA_ESt4lessIS5_ESaISA_EE11_Alloc_nodeclIRKSA_EEPSt13_Rb_tree_nodeISA_EOT_
	.type	_ZNKSt8_Rb_treeINSt7__cxx1112basic_stringIcSt11char_traitsIcESaIcEEESt4pairIKS5_PFvvEESt10_Select1stISA_ESt4lessIS5_ESaISA_EE11_Alloc_nodeclIRKSA_EEPSt13_Rb_tree_nodeISA_EOT_, @function
_ZNKSt8_Rb_treeINSt7__cxx1112basic_stringIcSt11char_traitsIcESaIcEEESt4pairIKS5_PFvvEESt10_Select1stISA_ESt4lessIS5_ESaISA_EE11_Alloc_nodeclIRKSA_EEPSt13_Rb_tree_nodeISA_EOT_:
.LFB7986:
	.cfi_startproc
	endbr64
	push	rbp
	.cfi_def_cfa_offset 16
	.cfi_offset 6, -16
	mov	rbp, rsp
	.cfi_def_cfa_register 6
	push	rbx
	sub	rsp, 24
	.cfi_offset 3, -24
	mov	QWORD PTR -24[rbp], rdi
	mov	QWORD PTR -32[rbp], rsi
	mov	rax, QWORD PTR -24[rbp]
	mov	rbx, QWORD PTR [rax]
	mov	rax, QWORD PTR -32[rbp]
	mov	rdi, rax
	call	_ZSt7forwardIRKSt4pairIKNSt7__cxx1112basic_stringIcSt11char_traitsIcESaIcEEEPFvvEEEOT_RNSt16remove_referenceISD_E4typeE
	mov	rsi, rax
	mov	rdi, rbx
	call	_ZNSt8_Rb_treeINSt7__cxx1112basic_stringIcSt11char_traitsIcESaIcEEESt4pairIKS5_PFvvEESt10_Select1stISA_ESt4lessIS5_ESaISA_EE14_M_create_nodeIJRKSA_EEEPSt13_Rb_tree_nodeISA_EDpOT_
	mov	rbx, QWORD PTR -8[rbp]
	leave
	.cfi_def_cfa 7, 8
	ret
	.cfi_endproc
.LFE7986:
	.size	_ZNKSt8_Rb_treeINSt7__cxx1112basic_stringIcSt11char_traitsIcESaIcEEESt4pairIKS5_PFvvEESt10_Select1stISA_ESt4lessIS5_ESaISA_EE11_Alloc_nodeclIRKSA_EEPSt13_Rb_tree_nodeISA_EOT_, .-_ZNKSt8_Rb_treeINSt7__cxx1112basic_stringIcSt11char_traitsIcESaIcEEESt4pairIKS5_PFvvEESt10_Select1stISA_ESt4lessIS5_ESaISA_EE11_Alloc_nodeclIRKSA_EEPSt13_Rb_tree_nodeISA_EOT_
	.section	.text._ZNKSt15__new_allocatorIhE8max_sizeEv,"axG",@progbits,_ZNKSt15__new_allocatorIhE8max_sizeEv,comdat
	.align 2
	.weak	_ZNKSt15__new_allocatorIhE8max_sizeEv
	.type	_ZNKSt15__new_allocatorIhE8max_sizeEv, @function
_ZNKSt15__new_allocatorIhE8max_sizeEv:
.LFB7995:
	.cfi_startproc
	endbr64
	push	rbp
	.cfi_def_cfa_offset 16
	.cfi_offset 6, -16
	mov	rbp, rsp
	.cfi_def_cfa_register 6
	sub	rsp, 16
	mov	QWORD PTR -8[rbp], rdi
	mov	rax, QWORD PTR -8[rbp]
	mov	rdi, rax
	call	_ZNKSt15__new_allocatorIhE11_M_max_sizeEv
	leave
	.cfi_def_cfa 7, 8
	ret
	.cfi_endproc
.LFE7995:
	.size	_ZNKSt15__new_allocatorIhE8max_sizeEv, .-_ZNKSt15__new_allocatorIhE8max_sizeEv
	.section	.text._ZSt11__addressofIhEPT_RS0_,"axG",@progbits,_ZSt11__addressofIhEPT_RS0_,comdat
	.weak	_ZSt11__addressofIhEPT_RS0_
	.type	_ZSt11__addressofIhEPT_RS0_, @function
_ZSt11__addressofIhEPT_RS0_:
.LFB7996:
	.cfi_startproc
	endbr64
	push	rbp
	.cfi_def_cfa_offset 16
	.cfi_offset 6, -16
	mov	rbp, rsp
	.cfi_def_cfa_register 6
	mov	QWORD PTR -8[rbp], rdi
	mov	rax, QWORD PTR -8[rbp]
	pop	rbp
	.cfi_def_cfa 7, 8
	ret
	.cfi_endproc
.LFE7996:
	.size	_ZSt11__addressofIhEPT_RS0_, .-_ZSt11__addressofIhEPT_RS0_
	.section	.text._ZSt10_ConstructIhJEEvPT_DpOT0_,"axG",@progbits,_ZSt10_ConstructIhJEEvPT_DpOT0_,comdat
	.weak	_ZSt10_ConstructIhJEEvPT_DpOT0_
	.type	_ZSt10_ConstructIhJEEvPT_DpOT0_, @function
_ZSt10_ConstructIhJEEvPT_DpOT0_:
.LFB7997:
	.cfi_startproc
	endbr64
	push	rbp
	.cfi_def_cfa_offset 16
	.cfi_offset 6, -16
	mov	rbp, rsp
	.cfi_def_cfa_register 6
	sub	rsp, 16
	mov	QWORD PTR -8[rbp], rdi
	mov	rax, QWORD PTR -8[rbp]
	mov	rsi, rax
	mov	edi, 1
	call	_ZnwmPv
	mov	BYTE PTR [rax], 0
	nop
	leave
	.cfi_def_cfa 7, 8
	ret
	.cfi_endproc
.LFE7997:
	.size	_ZSt10_ConstructIhJEEvPT_DpOT0_, .-_ZSt10_ConstructIhJEEvPT_DpOT0_
	.section	.text._ZSt6fill_nIPhmhET_S1_T0_RKT1_,"axG",@progbits,_ZSt6fill_nIPhmhET_S1_T0_RKT1_,comdat
	.weak	_ZSt6fill_nIPhmhET_S1_T0_RKT1_
	.type	_ZSt6fill_nIPhmhET_S1_T0_RKT1_, @function
_ZSt6fill_nIPhmhET_S1_T0_RKT1_:
.LFB7998:
	.cfi_startproc
	endbr64
	push	rbp
	.cfi_def_cfa_offset 16
	.cfi_offset 6, -16
	mov	rbp, rsp
	.cfi_def_cfa_register 6
	sub	rsp, 32
	mov	QWORD PTR -8[rbp], rdi
	mov	QWORD PTR -16[rbp], rsi
	mov	QWORD PTR -24[rbp], rdx
	lea	rax, -8[rbp]
	mov	rdi, rax
	call	_ZSt19__iterator_categoryIPhENSt15iterator_traitsIT_E17iterator_categoryERKS2_
	mov	rax, QWORD PTR -16[rbp]
	mov	rdi, rax
	call	_ZSt17__size_to_integerm
	mov	rcx, rax
	mov	rax, QWORD PTR -8[rbp]
	mov	rdx, QWORD PTR -24[rbp]
	mov	rsi, rcx
	mov	rdi, rax
	call	_ZSt10__fill_n_aIPhmhET_S1_T0_RKT1_St26random_access_iterator_tag
	leave
	.cfi_def_cfa 7, 8
	ret
	.cfi_endproc
.LFE7998:
	.size	_ZSt6fill_nIPhmhET_S1_T0_RKT1_, .-_ZSt6fill_nIPhmhET_S1_T0_RKT1_
	.section	.text._ZNKSt15__new_allocatorIhE11_M_max_sizeEv,"axG",@progbits,_ZNKSt15__new_allocatorIhE11_M_max_sizeEv,comdat
	.align 2
	.weak	_ZNKSt15__new_allocatorIhE11_M_max_sizeEv
	.type	_ZNKSt15__new_allocatorIhE11_M_max_sizeEv, @function
_ZNKSt15__new_allocatorIhE11_M_max_sizeEv:
.LFB7999:
	.cfi_startproc
	endbr64
	push	rbp
	.cfi_def_cfa_offset 16
	.cfi_offset 6, -16
	mov	rbp, rsp
	.cfi_def_cfa_register 6
	mov	QWORD PTR -8[rbp], rdi
	movabs	rax, 9223372036854775807
	pop	rbp
	.cfi_def_cfa 7, 8
	ret
	.cfi_endproc
.LFE7999:
	.size	_ZNKSt15__new_allocatorIhE11_M_max_sizeEv, .-_ZNKSt15__new_allocatorIhE11_M_max_sizeEv
	.section	.text._ZNSt8_Rb_treeINSt7__cxx1112basic_stringIcSt11char_traitsIcESaIcEEESt4pairIKS5_PFvvEESt10_Select1stISA_ESt4lessIS5_ESaISA_EE21_M_get_Node_allocatorEv,"axG",@progbits,_ZNSt8_Rb_treeINSt7__cxx1112basic_stringIcSt11char_traitsIcESaIcEEESt4pairIKS5_PFvvEESt10_Select1stISA_ESt4lessIS5_ESaISA_EE21_M_get_Node_allocatorEv,comdat
	.align 2
	.weak	_ZNSt8_Rb_treeINSt7__cxx1112basic_stringIcSt11char_traitsIcESaIcEEESt4pairIKS5_PFvvEESt10_Select1stISA_ESt4lessIS5_ESaISA_EE21_M_get_Node_allocatorEv
	.type	_ZNSt8_Rb_treeINSt7__cxx1112basic_stringIcSt11char_traitsIcESaIcEEESt4pairIKS5_PFvvEESt10_Select1stISA_ESt4lessIS5_ESaISA_EE21_M_get_Node_allocatorEv, @function
_ZNSt8_Rb_treeINSt7__cxx1112basic_stringIcSt11char_traitsIcESaIcEEESt4pairIKS5_PFvvEESt10_Select1stISA_ESt4lessIS5_ESaISA_EE21_M_get_Node_allocatorEv:
.LFB8000:
	.cfi_startproc
	endbr64
	push	rbp
	.cfi_def_cfa_offset 16
	.cfi_offset 6, -16
	mov	rbp, rsp
	.cfi_def_cfa_register 6
	mov	QWORD PTR -8[rbp], rdi
	mov	rax, QWORD PTR -8[rbp]
	pop	rbp
	.cfi_def_cfa 7, 8
	ret
	.cfi_endproc
.LFE8000:
	.size	_ZNSt8_Rb_treeINSt7__cxx1112basic_stringIcSt11char_traitsIcESaIcEEESt4pairIKS5_PFvvEESt10_Select1stISA_ESt4lessIS5_ESaISA_EE21_M_get_Node_allocatorEv, .-_ZNSt8_Rb_treeINSt7__cxx1112basic_stringIcSt11char_traitsIcESaIcEEESt4pairIKS5_PFvvEESt10_Select1stISA_ESt4lessIS5_ESaISA_EE21_M_get_Node_allocatorEv
	.section	.text._ZNSt13_Rb_tree_nodeISt4pairIKNSt7__cxx1112basic_stringIcSt11char_traitsIcESaIcEEEPFvvEEE9_M_valptrEv,"axG",@progbits,_ZNSt13_Rb_tree_nodeISt4pairIKNSt7__cxx1112basic_stringIcSt11char_traitsIcESaIcEEEPFvvEEE9_M_valptrEv,comdat
	.align 2
	.weak	_ZNSt13_Rb_tree_nodeISt4pairIKNSt7__cxx1112basic_stringIcSt11char_traitsIcESaIcEEEPFvvEEE9_M_valptrEv
	.type	_ZNSt13_Rb_tree_nodeISt4pairIKNSt7__cxx1112basic_stringIcSt11char_traitsIcESaIcEEEPFvvEEE9_M_valptrEv, @function
_ZNSt13_Rb_tree_nodeISt4pairIKNSt7__cxx1112basic_stringIcSt11char_traitsIcESaIcEEEPFvvEEE9_M_valptrEv:
.LFB8001:
	.cfi_startproc
	endbr64
	push	rbp
	.cfi_def_cfa_offset 16
	.cfi_offset 6, -16
	mov	rbp, rsp
	.cfi_def_cfa_register 6
	sub	rsp, 16
	mov	QWORD PTR -8[rbp], rdi
	mov	rax, QWORD PTR -8[rbp]
	add	rax, 32
	mov	rdi, rax
	call	_ZN9__gnu_cxx16__aligned_membufISt4pairIKNSt7__cxx1112basic_stringIcSt11char_traitsIcESaIcEEEPFvvEEE6_M_ptrEv
	leave
	.cfi_def_cfa 7, 8
	ret
	.cfi_endproc
.LFE8001:
	.size	_ZNSt13_Rb_tree_nodeISt4pairIKNSt7__cxx1112basic_stringIcSt11char_traitsIcESaIcEEEPFvvEEE9_M_valptrEv, .-_ZNSt13_Rb_tree_nodeISt4pairIKNSt7__cxx1112basic_stringIcSt11char_traitsIcESaIcEEEPFvvEEE9_M_valptrEv
	.section	.text._ZNSt16allocator_traitsISaISt13_Rb_tree_nodeISt4pairIKNSt7__cxx1112basic_stringIcSt11char_traitsIcESaIcEEEPFvvEEEEE7destroyISB_EEvRSD_PT_,"axG",@progbits,_ZNSt16allocator_traitsISaISt13_Rb_tree_nodeISt4pairIKNSt7__cxx1112basic_stringIcSt11char_traitsIcESaIcEEEPFvvEEEEE7destroyISB_EEvRSD_PT_,comdat
	.weak	_ZNSt16allocator_traitsISaISt13_Rb_tree_nodeISt4pairIKNSt7__cxx1112basic_stringIcSt11char_traitsIcESaIcEEEPFvvEEEEE7destroyISB_EEvRSD_PT_
	.type	_ZNSt16allocator_traitsISaISt13_Rb_tree_nodeISt4pairIKNSt7__cxx1112basic_stringIcSt11char_traitsIcESaIcEEEPFvvEEEEE7destroyISB_EEvRSD_PT_, @function
_ZNSt16allocator_traitsISaISt13_Rb_tree_nodeISt4pairIKNSt7__cxx1112basic_stringIcSt11char_traitsIcESaIcEEEPFvvEEEEE7destroyISB_EEvRSD_PT_:
.LFB8002:
	.cfi_startproc
	endbr64
	push	rbp
	.cfi_def_cfa_offset 16
	.cfi_offset 6, -16
	mov	rbp, rsp
	.cfi_def_cfa_register 6
	sub	rsp, 16
	mov	QWORD PTR -8[rbp], rdi
	mov	QWORD PTR -16[rbp], rsi
	mov	rdx, QWORD PTR -16[rbp]
	mov	rax, QWORD PTR -8[rbp]
	mov	rsi, rdx
	mov	rdi, rax
	call	_ZNSt15__new_allocatorISt13_Rb_tree_nodeISt4pairIKNSt7__cxx1112basic_stringIcSt11char_traitsIcESaIcEEEPFvvEEEE7destroyISB_EEvPT_
	nop
	leave
	.cfi_def_cfa 7, 8
	ret
	.cfi_endproc
.LFE8002:
	.size	_ZNSt16allocator_traitsISaISt13_Rb_tree_nodeISt4pairIKNSt7__cxx1112basic_stringIcSt11char_traitsIcESaIcEEEPFvvEEEEE7destroyISB_EEvRSD_PT_, .-_ZNSt16allocator_traitsISaISt13_Rb_tree_nodeISt4pairIKNSt7__cxx1112basic_stringIcSt11char_traitsIcESaIcEEEPFvvEEEEE7destroyISB_EEvRSD_PT_
	.section	.text._ZNSt16allocator_traitsISaISt13_Rb_tree_nodeISt4pairIKNSt7__cxx1112basic_stringIcSt11char_traitsIcESaIcEEEPFvvEEEEE10deallocateERSD_PSC_m,"axG",@progbits,_ZNSt16allocator_traitsISaISt13_Rb_tree_nodeISt4pairIKNSt7__cxx1112basic_stringIcSt11char_traitsIcESaIcEEEPFvvEEEEE10deallocateERSD_PSC_m,comdat
	.weak	_ZNSt16allocator_traitsISaISt13_Rb_tree_nodeISt4pairIKNSt7__cxx1112basic_stringIcSt11char_traitsIcESaIcEEEPFvvEEEEE10deallocateERSD_PSC_m
	.type	_ZNSt16allocator_traitsISaISt13_Rb_tree_nodeISt4pairIKNSt7__cxx1112basic_stringIcSt11char_traitsIcESaIcEEEPFvvEEEEE10deallocateERSD_PSC_m, @function
_ZNSt16allocator_traitsISaISt13_Rb_tree_nodeISt4pairIKNSt7__cxx1112basic_stringIcSt11char_traitsIcESaIcEEEPFvvEEEEE10deallocateERSD_PSC_m:
.LFB8003:
	.cfi_startproc
	endbr64
	push	rbp
	.cfi_def_cfa_offset 16
	.cfi_offset 6, -16
	mov	rbp, rsp
	.cfi_def_cfa_register 6
	sub	rsp, 32
	mov	QWORD PTR -8[rbp], rdi
	mov	QWORD PTR -16[rbp], rsi
	mov	QWORD PTR -24[rbp], rdx
	mov	rdx, QWORD PTR -24[rbp]
	mov	rcx, QWORD PTR -16[rbp]
	mov	rax, QWORD PTR -8[rbp]
	mov	rsi, rcx
	mov	rdi, rax
	call	_ZNSt15__new_allocatorISt13_Rb_tree_nodeISt4pairIKNSt7__cxx1112basic_stringIcSt11char_traitsIcESaIcEEEPFvvEEEE10deallocateEPSC_m
	nop
	leave
	.cfi_def_cfa 7, 8
	ret
	.cfi_endproc
.LFE8003:
	.size	_ZNSt16allocator_traitsISaISt13_Rb_tree_nodeISt4pairIKNSt7__cxx1112basic_stringIcSt11char_traitsIcESaIcEEEPFvvEEEEE10deallocateERSD_PSC_m, .-_ZNSt16allocator_traitsISaISt13_Rb_tree_nodeISt4pairIKNSt7__cxx1112basic_stringIcSt11char_traitsIcESaIcEEEPFvvEEEEE10deallocateERSD_PSC_m
	.section	.text._ZNSt8_Rb_treeINSt7__cxx1112basic_stringIcSt11char_traitsIcESaIcEEESt4pairIKS5_PFvvEESt10_Select1stISA_ESt4lessIS5_ESaISA_EE6_S_keyEPKSt13_Rb_tree_nodeISA_E,"axG",@progbits,_ZNSt8_Rb_treeINSt7__cxx1112basic_stringIcSt11char_traitsIcESaIcEEESt4pairIKS5_PFvvEESt10_Select1stISA_ESt4lessIS5_ESaISA_EE6_S_keyEPKSt13_Rb_tree_nodeISA_E,comdat
	.weak	_ZNSt8_Rb_treeINSt7__cxx1112basic_stringIcSt11char_traitsIcESaIcEEESt4pairIKS5_PFvvEESt10_Select1stISA_ESt4lessIS5_ESaISA_EE6_S_keyEPKSt13_Rb_tree_nodeISA_E
	.type	_ZNSt8_Rb_treeINSt7__cxx1112basic_stringIcSt11char_traitsIcESaIcEEESt4pairIKS5_PFvvEESt10_Select1stISA_ESt4lessIS5_ESaISA_EE6_S_keyEPKSt13_Rb_tree_nodeISA_E, @function
_ZNSt8_Rb_treeINSt7__cxx1112basic_stringIcSt11char_traitsIcESaIcEEESt4pairIKS5_PFvvEESt10_Select1stISA_ESt4lessIS5_ESaISA_EE6_S_keyEPKSt13_Rb_tree_nodeISA_E:
.LFB8004:
	.cfi_startproc
	endbr64
	push	rbp
	.cfi_def_cfa_offset 16
	.cfi_offset 6, -16
	mov	rbp, rsp
	.cfi_def_cfa_register 6
	sub	rsp, 32
	mov	QWORD PTR -24[rbp], rdi
	mov	rax, QWORD PTR fs:40
	mov	QWORD PTR -8[rbp], rax
	xor	eax, eax
	mov	rax, QWORD PTR -24[rbp]
	mov	rdi, rax
	call	_ZNKSt13_Rb_tree_nodeISt4pairIKNSt7__cxx1112basic_stringIcSt11char_traitsIcESaIcEEEPFvvEEE9_M_valptrEv
	mov	rdx, rax
	lea	rax, -9[rbp]
	mov	rsi, rdx
	mov	rdi, rax
	call	_ZNKSt10_Select1stISt4pairIKNSt7__cxx1112basic_stringIcSt11char_traitsIcESaIcEEEPFvvEEEclERKSA_
	mov	rdx, QWORD PTR -8[rbp]
	sub	rdx, QWORD PTR fs:40
	je	.L329
	call	__stack_chk_fail@PLT
.L329:
	leave
	.cfi_def_cfa 7, 8
	ret
	.cfi_endproc
.LFE8004:
	.size	_ZNSt8_Rb_treeINSt7__cxx1112basic_stringIcSt11char_traitsIcESaIcEEESt4pairIKS5_PFvvEESt10_Select1stISA_ESt4lessIS5_ESaISA_EE6_S_keyEPKSt13_Rb_tree_nodeISA_E, .-_ZNSt8_Rb_treeINSt7__cxx1112basic_stringIcSt11char_traitsIcESaIcEEESt4pairIKS5_PFvvEESt10_Select1stISA_ESt4lessIS5_ESaISA_EE6_S_keyEPKSt13_Rb_tree_nodeISA_E
	.section	.text._ZStltIcSt11char_traitsIcESaIcEEbRKNSt7__cxx1112basic_stringIT_T0_T1_EESA_,"axG",@progbits,_ZStltIcSt11char_traitsIcESaIcEEbRKNSt7__cxx1112basic_stringIT_T0_T1_EESA_,comdat
	.weak	_ZStltIcSt11char_traitsIcESaIcEEbRKNSt7__cxx1112basic_stringIT_T0_T1_EESA_
	.type	_ZStltIcSt11char_traitsIcESaIcEEbRKNSt7__cxx1112basic_stringIT_T0_T1_EESA_, @function
_ZStltIcSt11char_traitsIcESaIcEEbRKNSt7__cxx1112basic_stringIT_T0_T1_EESA_:
.LFB8007:
	.cfi_startproc
	endbr64
	push	rbp
	.cfi_def_cfa_offset 16
	.cfi_offset 6, -16
	mov	rbp, rsp
	.cfi_def_cfa_register 6
	sub	rsp, 16
	mov	QWORD PTR -8[rbp], rdi
	mov	QWORD PTR -16[rbp], rsi
	mov	rdx, QWORD PTR -16[rbp]
	mov	rax, QWORD PTR -8[rbp]
	mov	rsi, rdx
	mov	rdi, rax
	call	_ZNKSt7__cxx1112basic_stringIcSt11char_traitsIcESaIcEE7compareERKS4_@PLT
	shr	eax, 31
	leave
	.cfi_def_cfa 7, 8
	ret
	.cfi_endproc
.LFE8007:
	.size	_ZStltIcSt11char_traitsIcESaIcEEbRKNSt7__cxx1112basic_stringIT_T0_T1_EESA_, .-_ZStltIcSt11char_traitsIcESaIcEEbRKNSt7__cxx1112basic_stringIT_T0_T1_EESA_
	.section	.text._ZNSt8_Rb_treeINSt7__cxx1112basic_stringIcSt11char_traitsIcESaIcEEESt4pairIKS5_PFvvEESt10_Select1stISA_ESt4lessIS5_ESaISA_EE5beginEv,"axG",@progbits,_ZNSt8_Rb_treeINSt7__cxx1112basic_stringIcSt11char_traitsIcESaIcEEESt4pairIKS5_PFvvEESt10_Select1stISA_ESt4lessIS5_ESaISA_EE5beginEv,comdat
	.align 2
	.weak	_ZNSt8_Rb_treeINSt7__cxx1112basic_stringIcSt11char_traitsIcESaIcEEESt4pairIKS5_PFvvEESt10_Select1stISA_ESt4lessIS5_ESaISA_EE5beginEv
	.type	_ZNSt8_Rb_treeINSt7__cxx1112basic_stringIcSt11char_traitsIcESaIcEEESt4pairIKS5_PFvvEESt10_Select1stISA_ESt4lessIS5_ESaISA_EE5beginEv, @function
_ZNSt8_Rb_treeINSt7__cxx1112basic_stringIcSt11char_traitsIcESaIcEEESt4pairIKS5_PFvvEESt10_Select1stISA_ESt4lessIS5_ESaISA_EE5beginEv:
.LFB8008:
	.cfi_startproc
	endbr64
	push	rbp
	.cfi_def_cfa_offset 16
	.cfi_offset 6, -16
	mov	rbp, rsp
	.cfi_def_cfa_register 6
	sub	rsp, 32
	mov	QWORD PTR -24[rbp], rdi
	mov	rax, QWORD PTR fs:40
	mov	QWORD PTR -8[rbp], rax
	xor	eax, eax
	mov	rax, QWORD PTR -24[rbp]
	mov	rdx, QWORD PTR 24[rax]
	lea	rax, -16[rbp]
	mov	rsi, rdx
	mov	rdi, rax
	call	_ZNSt17_Rb_tree_iteratorISt4pairIKNSt7__cxx1112basic_stringIcSt11char_traitsIcESaIcEEEPFvvEEEC1EPSt18_Rb_tree_node_base
	mov	rax, QWORD PTR -16[rbp]
	mov	rdx, QWORD PTR -8[rbp]
	sub	rdx, QWORD PTR fs:40
	je	.L334
	call	__stack_chk_fail@PLT
.L334:
	leave
	.cfi_def_cfa 7, 8
	ret
	.cfi_endproc
.LFE8008:
	.size	_ZNSt8_Rb_treeINSt7__cxx1112basic_stringIcSt11char_traitsIcESaIcEEESt4pairIKS5_PFvvEESt10_Select1stISA_ESt4lessIS5_ESaISA_EE5beginEv, .-_ZNSt8_Rb_treeINSt7__cxx1112basic_stringIcSt11char_traitsIcESaIcEEESt4pairIKS5_PFvvEESt10_Select1stISA_ESt4lessIS5_ESaISA_EE5beginEv
	.section	.text._ZSteqRKSt17_Rb_tree_iteratorISt4pairIKNSt7__cxx1112basic_stringIcSt11char_traitsIcESaIcEEEPFvvEEESD_,"axG",@progbits,_ZSteqRKSt17_Rb_tree_iteratorISt4pairIKNSt7__cxx1112basic_stringIcSt11char_traitsIcESaIcEEEPFvvEEESD_,comdat
	.weak	_ZSteqRKSt17_Rb_tree_iteratorISt4pairIKNSt7__cxx1112basic_stringIcSt11char_traitsIcESaIcEEEPFvvEEESD_
	.type	_ZSteqRKSt17_Rb_tree_iteratorISt4pairIKNSt7__cxx1112basic_stringIcSt11char_traitsIcESaIcEEEPFvvEEESD_, @function
_ZSteqRKSt17_Rb_tree_iteratorISt4pairIKNSt7__cxx1112basic_stringIcSt11char_traitsIcESaIcEEEPFvvEEESD_:
.LFB8009:
	.cfi_startproc
	endbr64
	push	rbp
	.cfi_def_cfa_offset 16
	.cfi_offset 6, -16
	mov	rbp, rsp
	.cfi_def_cfa_register 6
	mov	QWORD PTR -8[rbp], rdi
	mov	QWORD PTR -16[rbp], rsi
	mov	rax, QWORD PTR -8[rbp]
	mov	rdx, QWORD PTR [rax]
	mov	rax, QWORD PTR -16[rbp]
	mov	rax, QWORD PTR [rax]
	cmp	rdx, rax
	sete	al
	pop	rbp
	.cfi_def_cfa 7, 8
	ret
	.cfi_endproc
.LFE8009:
	.size	_ZSteqRKSt17_Rb_tree_iteratorISt4pairIKNSt7__cxx1112basic_stringIcSt11char_traitsIcESaIcEEEPFvvEEESD_, .-_ZSteqRKSt17_Rb_tree_iteratorISt4pairIKNSt7__cxx1112basic_stringIcSt11char_traitsIcESaIcEEEPFvvEEESD_
	.section	.text._ZNSt4pairIPSt18_Rb_tree_node_baseS1_EC2IRPSt13_Rb_tree_nodeIS_IKNSt7__cxx1112basic_stringIcSt11char_traitsIcESaIcEEEPFvvEEERS1_Lb1EEEOT_OT0_,"axG",@progbits,_ZNSt4pairIPSt18_Rb_tree_node_baseS1_EC5IRPSt13_Rb_tree_nodeIS_IKNSt7__cxx1112basic_stringIcSt11char_traitsIcESaIcEEEPFvvEEERS1_Lb1EEEOT_OT0_,comdat
	.align 2
	.weak	_ZNSt4pairIPSt18_Rb_tree_node_baseS1_EC2IRPSt13_Rb_tree_nodeIS_IKNSt7__cxx1112basic_stringIcSt11char_traitsIcESaIcEEEPFvvEEERS1_Lb1EEEOT_OT0_
	.type	_ZNSt4pairIPSt18_Rb_tree_node_baseS1_EC2IRPSt13_Rb_tree_nodeIS_IKNSt7__cxx1112basic_stringIcSt11char_traitsIcESaIcEEEPFvvEEERS1_Lb1EEEOT_OT0_, @function
_ZNSt4pairIPSt18_Rb_tree_node_baseS1_EC2IRPSt13_Rb_tree_nodeIS_IKNSt7__cxx1112basic_stringIcSt11char_traitsIcESaIcEEEPFvvEEERS1_Lb1EEEOT_OT0_:
.LFB8011:
	.cfi_startproc
	endbr64
	push	rbp
	.cfi_def_cfa_offset 16
	.cfi_offset 6, -16
	mov	rbp, rsp
	.cfi_def_cfa_register 6
	sub	rsp, 32
	mov	QWORD PTR -8[rbp], rdi
	mov	QWORD PTR -16[rbp], rsi
	mov	QWORD PTR -24[rbp], rdx
	mov	rax, QWORD PTR -16[rbp]
	mov	rdi, rax
	call	_ZSt7forwardIRPSt13_Rb_tree_nodeISt4pairIKNSt7__cxx1112basic_stringIcSt11char_traitsIcESaIcEEEPFvvEEEEOT_RNSt16remove_referenceISF_E4typeE
	mov	rdx, QWORD PTR [rax]
	mov	rax, QWORD PTR -8[rbp]
	mov	QWORD PTR [rax], rdx
	mov	rax, QWORD PTR -24[rbp]
	mov	rdi, rax
	call	_ZSt7forwardIRPSt18_Rb_tree_node_baseEOT_RNSt16remove_referenceIS3_E4typeE
	mov	rdx, QWORD PTR [rax]
	mov	rax, QWORD PTR -8[rbp]
	mov	QWORD PTR 8[rax], rdx
	nop
	leave
	.cfi_def_cfa 7, 8
	ret
	.cfi_endproc
.LFE8011:
	.size	_ZNSt4pairIPSt18_Rb_tree_node_baseS1_EC2IRPSt13_Rb_tree_nodeIS_IKNSt7__cxx1112basic_stringIcSt11char_traitsIcESaIcEEEPFvvEEERS1_Lb1EEEOT_OT0_, .-_ZNSt4pairIPSt18_Rb_tree_node_baseS1_EC2IRPSt13_Rb_tree_nodeIS_IKNSt7__cxx1112basic_stringIcSt11char_traitsIcESaIcEEEPFvvEEERS1_Lb1EEEOT_OT0_
	.weak	_ZNSt4pairIPSt18_Rb_tree_node_baseS1_EC1IRPSt13_Rb_tree_nodeIS_IKNSt7__cxx1112basic_stringIcSt11char_traitsIcESaIcEEEPFvvEEERS1_Lb1EEEOT_OT0_
	.set	_ZNSt4pairIPSt18_Rb_tree_node_baseS1_EC1IRPSt13_Rb_tree_nodeIS_IKNSt7__cxx1112basic_stringIcSt11char_traitsIcESaIcEEEPFvvEEERS1_Lb1EEEOT_OT0_,_ZNSt4pairIPSt18_Rb_tree_node_baseS1_EC2IRPSt13_Rb_tree_nodeIS_IKNSt7__cxx1112basic_stringIcSt11char_traitsIcESaIcEEEPFvvEEERS1_Lb1EEEOT_OT0_
	.section	.text._ZSt7forwardIRPSt18_Rb_tree_node_baseEOT_RNSt16remove_referenceIS3_E4typeE,"axG",@progbits,_ZSt7forwardIRPSt18_Rb_tree_node_baseEOT_RNSt16remove_referenceIS3_E4typeE,comdat
	.weak	_ZSt7forwardIRPSt18_Rb_tree_node_baseEOT_RNSt16remove_referenceIS3_E4typeE
	.type	_ZSt7forwardIRPSt18_Rb_tree_node_baseEOT_RNSt16remove_referenceIS3_E4typeE, @function
_ZSt7forwardIRPSt18_Rb_tree_node_baseEOT_RNSt16remove_referenceIS3_E4typeE:
.LFB8013:
	.cfi_startproc
	endbr64
	push	rbp
	.cfi_def_cfa_offset 16
	.cfi_offset 6, -16
	mov	rbp, rsp
	.cfi_def_cfa_register 6
	mov	QWORD PTR -8[rbp], rdi
	mov	rax, QWORD PTR -8[rbp]
	pop	rbp
	.cfi_def_cfa 7, 8
	ret
	.cfi_endproc
.LFE8013:
	.size	_ZSt7forwardIRPSt18_Rb_tree_node_baseEOT_RNSt16remove_referenceIS3_E4typeE, .-_ZSt7forwardIRPSt18_Rb_tree_node_baseEOT_RNSt16remove_referenceIS3_E4typeE
	.section	.text._ZNSt8_Rb_treeINSt7__cxx1112basic_stringIcSt11char_traitsIcESaIcEEESt4pairIKS5_PFvvEESt10_Select1stISA_ESt4lessIS5_ESaISA_EE14_M_create_nodeIJRKSA_EEEPSt13_Rb_tree_nodeISA_EDpOT_,"axG",@progbits,_ZNSt8_Rb_treeINSt7__cxx1112basic_stringIcSt11char_traitsIcESaIcEEESt4pairIKS5_PFvvEESt10_Select1stISA_ESt4lessIS5_ESaISA_EE14_M_create_nodeIJRKSA_EEEPSt13_Rb_tree_nodeISA_EDpOT_,comdat
	.align 2
	.weak	_ZNSt8_Rb_treeINSt7__cxx1112basic_stringIcSt11char_traitsIcESaIcEEESt4pairIKS5_PFvvEESt10_Select1stISA_ESt4lessIS5_ESaISA_EE14_M_create_nodeIJRKSA_EEEPSt13_Rb_tree_nodeISA_EDpOT_
	.type	_ZNSt8_Rb_treeINSt7__cxx1112basic_stringIcSt11char_traitsIcESaIcEEESt4pairIKS5_PFvvEESt10_Select1stISA_ESt4lessIS5_ESaISA_EE14_M_create_nodeIJRKSA_EEEPSt13_Rb_tree_nodeISA_EDpOT_, @function
_ZNSt8_Rb_treeINSt7__cxx1112basic_stringIcSt11char_traitsIcESaIcEEESt4pairIKS5_PFvvEESt10_Select1stISA_ESt4lessIS5_ESaISA_EE14_M_create_nodeIJRKSA_EEEPSt13_Rb_tree_nodeISA_EDpOT_:
.LFB8014:
	.cfi_startproc
	endbr64
	push	rbp
	.cfi_def_cfa_offset 16
	.cfi_offset 6, -16
	mov	rbp, rsp
	.cfi_def_cfa_register 6
	sub	rsp, 32
	mov	QWORD PTR -24[rbp], rdi
	mov	QWORD PTR -32[rbp], rsi
	mov	rax, QWORD PTR -24[rbp]
	mov	rdi, rax
	call	_ZNSt8_Rb_treeINSt7__cxx1112basic_stringIcSt11char_traitsIcESaIcEEESt4pairIKS5_PFvvEESt10_Select1stISA_ESt4lessIS5_ESaISA_EE11_M_get_nodeEv
	mov	QWORD PTR -8[rbp], rax
	mov	rax, QWORD PTR -32[rbp]
	mov	rdi, rax
	call	_ZSt7forwardIRKSt4pairIKNSt7__cxx1112basic_stringIcSt11char_traitsIcESaIcEEEPFvvEEEOT_RNSt16remove_referenceISD_E4typeE
	mov	rdx, rax
	mov	rcx, QWORD PTR -8[rbp]
	mov	rax, QWORD PTR -24[rbp]
	mov	rsi, rcx
	mov	rdi, rax
	call	_ZNSt8_Rb_treeINSt7__cxx1112basic_stringIcSt11char_traitsIcESaIcEEESt4pairIKS5_PFvvEESt10_Select1stISA_ESt4lessIS5_ESaISA_EE17_M_construct_nodeIJRKSA_EEEvPSt13_Rb_tree_nodeISA_EDpOT_
	mov	rax, QWORD PTR -8[rbp]
	leave
	.cfi_def_cfa 7, 8
	ret
	.cfi_endproc
.LFE8014:
	.size	_ZNSt8_Rb_treeINSt7__cxx1112basic_stringIcSt11char_traitsIcESaIcEEESt4pairIKS5_PFvvEESt10_Select1stISA_ESt4lessIS5_ESaISA_EE14_M_create_nodeIJRKSA_EEEPSt13_Rb_tree_nodeISA_EDpOT_, .-_ZNSt8_Rb_treeINSt7__cxx1112basic_stringIcSt11char_traitsIcESaIcEEESt4pairIKS5_PFvvEESt10_Select1stISA_ESt4lessIS5_ESaISA_EE14_M_create_nodeIJRKSA_EEEPSt13_Rb_tree_nodeISA_EDpOT_
	.section	.text._ZSt19__iterator_categoryIPhENSt15iterator_traitsIT_E17iterator_categoryERKS2_,"axG",@progbits,_ZSt19__iterator_categoryIPhENSt15iterator_traitsIT_E17iterator_categoryERKS2_,comdat
	.weak	_ZSt19__iterator_categoryIPhENSt15iterator_traitsIT_E17iterator_categoryERKS2_
	.type	_ZSt19__iterator_categoryIPhENSt15iterator_traitsIT_E17iterator_categoryERKS2_, @function
_ZSt19__iterator_categoryIPhENSt15iterator_traitsIT_E17iterator_categoryERKS2_:
.LFB8018:
	.cfi_startproc
	endbr64
	push	rbp
	.cfi_def_cfa_offset 16
	.cfi_offset 6, -16
	mov	rbp, rsp
	.cfi_def_cfa_register 6
	mov	QWORD PTR -8[rbp], rdi
	nop
	pop	rbp
	.cfi_def_cfa 7, 8
	ret
	.cfi_endproc
.LFE8018:
	.size	_ZSt19__iterator_categoryIPhENSt15iterator_traitsIT_E17iterator_categoryERKS2_, .-_ZSt19__iterator_categoryIPhENSt15iterator_traitsIT_E17iterator_categoryERKS2_
	.section	.text._ZSt10__fill_n_aIPhmhET_S1_T0_RKT1_St26random_access_iterator_tag,"axG",@progbits,_ZSt10__fill_n_aIPhmhET_S1_T0_RKT1_St26random_access_iterator_tag,comdat
	.weak	_ZSt10__fill_n_aIPhmhET_S1_T0_RKT1_St26random_access_iterator_tag
	.type	_ZSt10__fill_n_aIPhmhET_S1_T0_RKT1_St26random_access_iterator_tag, @function
_ZSt10__fill_n_aIPhmhET_S1_T0_RKT1_St26random_access_iterator_tag:
.LFB8019:
	.cfi_startproc
	endbr64
	push	rbp
	.cfi_def_cfa_offset 16
	.cfi_offset 6, -16
	mov	rbp, rsp
	.cfi_def_cfa_register 6
	sub	rsp, 32
	mov	QWORD PTR -8[rbp], rdi
	mov	QWORD PTR -16[rbp], rsi
	mov	QWORD PTR -24[rbp], rdx
	cmp	QWORD PTR -16[rbp], 0
	jne	.L345
	mov	rax, QWORD PTR -8[rbp]
	jmp	.L346
.L345:
	mov	rdx, QWORD PTR -8[rbp]
	mov	rax, QWORD PTR -16[rbp]
	lea	rcx, [rdx+rax]
	mov	rdx, QWORD PTR -24[rbp]
	mov	rax, QWORD PTR -8[rbp]
	mov	rsi, rcx
	mov	rdi, rax
	call	_ZSt8__fill_aIPhhEvT_S1_RKT0_
	mov	rdx, QWORD PTR -8[rbp]
	mov	rax, QWORD PTR -16[rbp]
	add	rax, rdx
.L346:
	leave
	.cfi_def_cfa 7, 8
	ret
	.cfi_endproc
.LFE8019:
	.size	_ZSt10__fill_n_aIPhmhET_S1_T0_RKT1_St26random_access_iterator_tag, .-_ZSt10__fill_n_aIPhmhET_S1_T0_RKT1_St26random_access_iterator_tag
	.section	.text._ZN9__gnu_cxx16__aligned_membufISt4pairIKNSt7__cxx1112basic_stringIcSt11char_traitsIcESaIcEEEPFvvEEE6_M_ptrEv,"axG",@progbits,_ZN9__gnu_cxx16__aligned_membufISt4pairIKNSt7__cxx1112basic_stringIcSt11char_traitsIcESaIcEEEPFvvEEE6_M_ptrEv,comdat
	.align 2
	.weak	_ZN9__gnu_cxx16__aligned_membufISt4pairIKNSt7__cxx1112basic_stringIcSt11char_traitsIcESaIcEEEPFvvEEE6_M_ptrEv
	.type	_ZN9__gnu_cxx16__aligned_membufISt4pairIKNSt7__cxx1112basic_stringIcSt11char_traitsIcESaIcEEEPFvvEEE6_M_ptrEv, @function
_ZN9__gnu_cxx16__aligned_membufISt4pairIKNSt7__cxx1112basic_stringIcSt11char_traitsIcESaIcEEEPFvvEEE6_M_ptrEv:
.LFB8020:
	.cfi_startproc
	endbr64
	push	rbp
	.cfi_def_cfa_offset 16
	.cfi_offset 6, -16
	mov	rbp, rsp
	.cfi_def_cfa_register 6
	sub	rsp, 16
	mov	QWORD PTR -8[rbp], rdi
	mov	rax, QWORD PTR -8[rbp]
	mov	rdi, rax
	call	_ZN9__gnu_cxx16__aligned_membufISt4pairIKNSt7__cxx1112basic_stringIcSt11char_traitsIcESaIcEEEPFvvEEE7_M_addrEv
	leave
	.cfi_def_cfa 7, 8
	ret
	.cfi_endproc
.LFE8020:
	.size	_ZN9__gnu_cxx16__aligned_membufISt4pairIKNSt7__cxx1112basic_stringIcSt11char_traitsIcESaIcEEEPFvvEEE6_M_ptrEv, .-_ZN9__gnu_cxx16__aligned_membufISt4pairIKNSt7__cxx1112basic_stringIcSt11char_traitsIcESaIcEEEPFvvEEE6_M_ptrEv
	.section	.text._ZNSt15__new_allocatorISt13_Rb_tree_nodeISt4pairIKNSt7__cxx1112basic_stringIcSt11char_traitsIcESaIcEEEPFvvEEEE7destroyISB_EEvPT_,"axG",@progbits,_ZNSt15__new_allocatorISt13_Rb_tree_nodeISt4pairIKNSt7__cxx1112basic_stringIcSt11char_traitsIcESaIcEEEPFvvEEEE7destroyISB_EEvPT_,comdat
	.align 2
	.weak	_ZNSt15__new_allocatorISt13_Rb_tree_nodeISt4pairIKNSt7__cxx1112basic_stringIcSt11char_traitsIcESaIcEEEPFvvEEEE7destroyISB_EEvPT_
	.type	_ZNSt15__new_allocatorISt13_Rb_tree_nodeISt4pairIKNSt7__cxx1112basic_stringIcSt11char_traitsIcESaIcEEEPFvvEEEE7destroyISB_EEvPT_, @function
_ZNSt15__new_allocatorISt13_Rb_tree_nodeISt4pairIKNSt7__cxx1112basic_stringIcSt11char_traitsIcESaIcEEEPFvvEEEE7destroyISB_EEvPT_:
.LFB8021:
	.cfi_startproc
	endbr64
	push	rbp
	.cfi_def_cfa_offset 16
	.cfi_offset 6, -16
	mov	rbp, rsp
	.cfi_def_cfa_register 6
	sub	rsp, 16
	mov	QWORD PTR -8[rbp], rdi
	mov	QWORD PTR -16[rbp], rsi
	mov	rax, QWORD PTR -16[rbp]
	mov	rdi, rax
	call	_ZNSt4pairIKNSt7__cxx1112basic_stringIcSt11char_traitsIcESaIcEEEPFvvEED1Ev
	nop
	leave
	.cfi_def_cfa 7, 8
	ret
	.cfi_endproc
.LFE8021:
	.size	_ZNSt15__new_allocatorISt13_Rb_tree_nodeISt4pairIKNSt7__cxx1112basic_stringIcSt11char_traitsIcESaIcEEEPFvvEEEE7destroyISB_EEvPT_, .-_ZNSt15__new_allocatorISt13_Rb_tree_nodeISt4pairIKNSt7__cxx1112basic_stringIcSt11char_traitsIcESaIcEEEPFvvEEEE7destroyISB_EEvPT_
	.section	.text._ZNSt15__new_allocatorISt13_Rb_tree_nodeISt4pairIKNSt7__cxx1112basic_stringIcSt11char_traitsIcESaIcEEEPFvvEEEE10deallocateEPSC_m,"axG",@progbits,_ZNSt15__new_allocatorISt13_Rb_tree_nodeISt4pairIKNSt7__cxx1112basic_stringIcSt11char_traitsIcESaIcEEEPFvvEEEE10deallocateEPSC_m,comdat
	.align 2
	.weak	_ZNSt15__new_allocatorISt13_Rb_tree_nodeISt4pairIKNSt7__cxx1112basic_stringIcSt11char_traitsIcESaIcEEEPFvvEEEE10deallocateEPSC_m
	.type	_ZNSt15__new_allocatorISt13_Rb_tree_nodeISt4pairIKNSt7__cxx1112basic_stringIcSt11char_traitsIcESaIcEEEPFvvEEEE10deallocateEPSC_m, @function
_ZNSt15__new_allocatorISt13_Rb_tree_nodeISt4pairIKNSt7__cxx1112basic_stringIcSt11char_traitsIcESaIcEEEPFvvEEEE10deallocateEPSC_m:
.LFB8022:
	.cfi_startproc
	endbr64
	push	rbp
	.cfi_def_cfa_offset 16
	.cfi_offset 6, -16
	mov	rbp, rsp
	.cfi_def_cfa_register 6
	sub	rsp, 32
	mov	QWORD PTR -8[rbp], rdi
	mov	QWORD PTR -16[rbp], rsi
	mov	QWORD PTR -24[rbp], rdx
	mov	rdx, QWORD PTR -24[rbp]
	mov	rax, rdx
	sal	rax, 3
	add	rax, rdx
	sal	rax, 3
	mov	rdx, rax
	mov	rax, QWORD PTR -16[rbp]
	mov	rsi, rdx
	mov	rdi, rax
	call	_ZdlPvm@PLT
	leave
	.cfi_def_cfa 7, 8
	ret
	.cfi_endproc
.LFE8022:
	.size	_ZNSt15__new_allocatorISt13_Rb_tree_nodeISt4pairIKNSt7__cxx1112basic_stringIcSt11char_traitsIcESaIcEEEPFvvEEEE10deallocateEPSC_m, .-_ZNSt15__new_allocatorISt13_Rb_tree_nodeISt4pairIKNSt7__cxx1112basic_stringIcSt11char_traitsIcESaIcEEEPFvvEEEE10deallocateEPSC_m
	.section	.text._ZNKSt13_Rb_tree_nodeISt4pairIKNSt7__cxx1112basic_stringIcSt11char_traitsIcESaIcEEEPFvvEEE9_M_valptrEv,"axG",@progbits,_ZNKSt13_Rb_tree_nodeISt4pairIKNSt7__cxx1112basic_stringIcSt11char_traitsIcESaIcEEEPFvvEEE9_M_valptrEv,comdat
	.align 2
	.weak	_ZNKSt13_Rb_tree_nodeISt4pairIKNSt7__cxx1112basic_stringIcSt11char_traitsIcESaIcEEEPFvvEEE9_M_valptrEv
	.type	_ZNKSt13_Rb_tree_nodeISt4pairIKNSt7__cxx1112basic_stringIcSt11char_traitsIcESaIcEEEPFvvEEE9_M_valptrEv, @function
_ZNKSt13_Rb_tree_nodeISt4pairIKNSt7__cxx1112basic_stringIcSt11char_traitsIcESaIcEEEPFvvEEE9_M_valptrEv:
.LFB8023:
	.cfi_startproc
	endbr64
	push	rbp
	.cfi_def_cfa_offset 16
	.cfi_offset 6, -16
	mov	rbp, rsp
	.cfi_def_cfa_register 6
	sub	rsp, 16
	mov	QWORD PTR -8[rbp], rdi
	mov	rax, QWORD PTR -8[rbp]
	add	rax, 32
	mov	rdi, rax
	call	_ZNK9__gnu_cxx16__aligned_membufISt4pairIKNSt7__cxx1112basic_stringIcSt11char_traitsIcESaIcEEEPFvvEEE6_M_ptrEv
	leave
	.cfi_def_cfa 7, 8
	ret
	.cfi_endproc
.LFE8023:
	.size	_ZNKSt13_Rb_tree_nodeISt4pairIKNSt7__cxx1112basic_stringIcSt11char_traitsIcESaIcEEEPFvvEEE9_M_valptrEv, .-_ZNKSt13_Rb_tree_nodeISt4pairIKNSt7__cxx1112basic_stringIcSt11char_traitsIcESaIcEEEPFvvEEE9_M_valptrEv
	.section	.text._ZSt7forwardIRPSt13_Rb_tree_nodeISt4pairIKNSt7__cxx1112basic_stringIcSt11char_traitsIcESaIcEEEPFvvEEEEOT_RNSt16remove_referenceISF_E4typeE,"axG",@progbits,_ZSt7forwardIRPSt13_Rb_tree_nodeISt4pairIKNSt7__cxx1112basic_stringIcSt11char_traitsIcESaIcEEEPFvvEEEEOT_RNSt16remove_referenceISF_E4typeE,comdat
	.weak	_ZSt7forwardIRPSt13_Rb_tree_nodeISt4pairIKNSt7__cxx1112basic_stringIcSt11char_traitsIcESaIcEEEPFvvEEEEOT_RNSt16remove_referenceISF_E4typeE
	.type	_ZSt7forwardIRPSt13_Rb_tree_nodeISt4pairIKNSt7__cxx1112basic_stringIcSt11char_traitsIcESaIcEEEPFvvEEEEOT_RNSt16remove_referenceISF_E4typeE, @function
_ZSt7forwardIRPSt13_Rb_tree_nodeISt4pairIKNSt7__cxx1112basic_stringIcSt11char_traitsIcESaIcEEEPFvvEEEEOT_RNSt16remove_referenceISF_E4typeE:
.LFB8025:
	.cfi_startproc
	endbr64
	push	rbp
	.cfi_def_cfa_offset 16
	.cfi_offset 6, -16
	mov	rbp, rsp
	.cfi_def_cfa_register 6
	mov	QWORD PTR -8[rbp], rdi
	mov	rax, QWORD PTR -8[rbp]
	pop	rbp
	.cfi_def_cfa 7, 8
	ret
	.cfi_endproc
.LFE8025:
	.size	_ZSt7forwardIRPSt13_Rb_tree_nodeISt4pairIKNSt7__cxx1112basic_stringIcSt11char_traitsIcESaIcEEEPFvvEEEEOT_RNSt16remove_referenceISF_E4typeE, .-_ZSt7forwardIRPSt13_Rb_tree_nodeISt4pairIKNSt7__cxx1112basic_stringIcSt11char_traitsIcESaIcEEEPFvvEEEEOT_RNSt16remove_referenceISF_E4typeE
	.section	.text._ZNSt8_Rb_treeINSt7__cxx1112basic_stringIcSt11char_traitsIcESaIcEEESt4pairIKS5_PFvvEESt10_Select1stISA_ESt4lessIS5_ESaISA_EE11_M_get_nodeEv,"axG",@progbits,_ZNSt8_Rb_treeINSt7__cxx1112basic_stringIcSt11char_traitsIcESaIcEEESt4pairIKS5_PFvvEESt10_Select1stISA_ESt4lessIS5_ESaISA_EE11_M_get_nodeEv,comdat
	.align 2
	.weak	_ZNSt8_Rb_treeINSt7__cxx1112basic_stringIcSt11char_traitsIcESaIcEEESt4pairIKS5_PFvvEESt10_Select1stISA_ESt4lessIS5_ESaISA_EE11_M_get_nodeEv
	.type	_ZNSt8_Rb_treeINSt7__cxx1112basic_stringIcSt11char_traitsIcESaIcEEESt4pairIKS5_PFvvEESt10_Select1stISA_ESt4lessIS5_ESaISA_EE11_M_get_nodeEv, @function
_ZNSt8_Rb_treeINSt7__cxx1112basic_stringIcSt11char_traitsIcESaIcEEESt4pairIKS5_PFvvEESt10_Select1stISA_ESt4lessIS5_ESaISA_EE11_M_get_nodeEv:
.LFB8026:
	.cfi_startproc
	endbr64
	push	rbp
	.cfi_def_cfa_offset 16
	.cfi_offset 6, -16
	mov	rbp, rsp
	.cfi_def_cfa_register 6
	sub	rsp, 16
	mov	QWORD PTR -8[rbp], rdi
	mov	rax, QWORD PTR -8[rbp]
	mov	rdi, rax
	call	_ZNSt8_Rb_treeINSt7__cxx1112basic_stringIcSt11char_traitsIcESaIcEEESt4pairIKS5_PFvvEESt10_Select1stISA_ESt4lessIS5_ESaISA_EE21_M_get_Node_allocatorEv
	mov	esi, 1
	mov	rdi, rax
	call	_ZNSt16allocator_traitsISaISt13_Rb_tree_nodeISt4pairIKNSt7__cxx1112basic_stringIcSt11char_traitsIcESaIcEEEPFvvEEEEE8allocateERSD_m
	leave
	.cfi_def_cfa 7, 8
	ret
	.cfi_endproc
.LFE8026:
	.size	_ZNSt8_Rb_treeINSt7__cxx1112basic_stringIcSt11char_traitsIcESaIcEEESt4pairIKS5_PFvvEESt10_Select1stISA_ESt4lessIS5_ESaISA_EE11_M_get_nodeEv, .-_ZNSt8_Rb_treeINSt7__cxx1112basic_stringIcSt11char_traitsIcESaIcEEESt4pairIKS5_PFvvEESt10_Select1stISA_ESt4lessIS5_ESaISA_EE11_M_get_nodeEv
	.section	.text._ZNSt8_Rb_treeINSt7__cxx1112basic_stringIcSt11char_traitsIcESaIcEEESt4pairIKS5_PFvvEESt10_Select1stISA_ESt4lessIS5_ESaISA_EE17_M_construct_nodeIJRKSA_EEEvPSt13_Rb_tree_nodeISA_EDpOT_,"axG",@progbits,_ZNSt8_Rb_treeINSt7__cxx1112basic_stringIcSt11char_traitsIcESaIcEEESt4pairIKS5_PFvvEESt10_Select1stISA_ESt4lessIS5_ESaISA_EE17_M_construct_nodeIJRKSA_EEEvPSt13_Rb_tree_nodeISA_EDpOT_,comdat
	.align 2
	.weak	_ZNSt8_Rb_treeINSt7__cxx1112basic_stringIcSt11char_traitsIcESaIcEEESt4pairIKS5_PFvvEESt10_Select1stISA_ESt4lessIS5_ESaISA_EE17_M_construct_nodeIJRKSA_EEEvPSt13_Rb_tree_nodeISA_EDpOT_
	.type	_ZNSt8_Rb_treeINSt7__cxx1112basic_stringIcSt11char_traitsIcESaIcEEESt4pairIKS5_PFvvEESt10_Select1stISA_ESt4lessIS5_ESaISA_EE17_M_construct_nodeIJRKSA_EEEvPSt13_Rb_tree_nodeISA_EDpOT_, @function
_ZNSt8_Rb_treeINSt7__cxx1112basic_stringIcSt11char_traitsIcESaIcEEESt4pairIKS5_PFvvEESt10_Select1stISA_ESt4lessIS5_ESaISA_EE17_M_construct_nodeIJRKSA_EEEvPSt13_Rb_tree_nodeISA_EDpOT_:
.LFB8027:
	.cfi_startproc
	.cfi_personality 0x9b,DW.ref.__gxx_personality_v0
	.cfi_lsda 0x1b,.LLSDA8027
	endbr64
	push	rbp
	.cfi_def_cfa_offset 16
	.cfi_offset 6, -16
	mov	rbp, rsp
	.cfi_def_cfa_register 6
	push	r12
	push	rbx
	sub	rsp, 32
	.cfi_offset 12, -24
	.cfi_offset 3, -32
	mov	QWORD PTR -24[rbp], rdi
	mov	QWORD PTR -32[rbp], rsi
	mov	QWORD PTR -40[rbp], rdx
	mov	rax, QWORD PTR -32[rbp]
	mov	rsi, rax
	mov	edi, 72
	call	_ZnwmPv
	mov	rax, QWORD PTR -40[rbp]
	mov	rdi, rax
	call	_ZSt7forwardIRKSt4pairIKNSt7__cxx1112basic_stringIcSt11char_traitsIcESaIcEEEPFvvEEEOT_RNSt16remove_referenceISD_E4typeE
	mov	r12, rax
	mov	rax, QWORD PTR -32[rbp]
	mov	rdi, rax
	call	_ZNSt13_Rb_tree_nodeISt4pairIKNSt7__cxx1112basic_stringIcSt11char_traitsIcESaIcEEEPFvvEEE9_M_valptrEv
	mov	rbx, rax
	mov	rax, QWORD PTR -24[rbp]
	mov	rdi, rax
	call	_ZNSt8_Rb_treeINSt7__cxx1112basic_stringIcSt11char_traitsIcESaIcEEESt4pairIKS5_PFvvEESt10_Select1stISA_ESt4lessIS5_ESaISA_EE21_M_get_Node_allocatorEv
	mov	rdx, r12
	mov	rsi, rbx
	mov	rdi, rax
.LEHB24:
	call	_ZNSt16allocator_traitsISaISt13_Rb_tree_nodeISt4pairIKNSt7__cxx1112basic_stringIcSt11char_traitsIcESaIcEEEPFvvEEEEE9constructISB_JRKSB_EEEvRSD_PT_DpOT0_
.LEHE24:
	jmp	.L363
.L361:
	endbr64
	mov	rdi, rax
	call	__cxa_begin_catch@PLT
	mov	rdx, QWORD PTR -32[rbp]
	mov	rax, QWORD PTR -24[rbp]
	mov	rsi, rdx
	mov	rdi, rax
	call	_ZNSt8_Rb_treeINSt7__cxx1112basic_stringIcSt11char_traitsIcESaIcEEESt4pairIKS5_PFvvEESt10_Select1stISA_ESt4lessIS5_ESaISA_EE11_M_put_nodeEPSt13_Rb_tree_nodeISA_E
.LEHB25:
	call	__cxa_rethrow@PLT
.LEHE25:
.L362:
	endbr64
	mov	rbx, rax
	call	__cxa_end_catch@PLT
	mov	rax, rbx
	mov	rdi, rax
.LEHB26:
	call	_Unwind_Resume@PLT
.LEHE26:
.L363:
	add	rsp, 32
	pop	rbx
	pop	r12
	pop	rbp
	.cfi_def_cfa 7, 8
	ret
	.cfi_endproc
.LFE8027:
	.section	.gcc_except_table
	.align 4
.LLSDA8027:
	.byte	0xff
	.byte	0x9b
	.uleb128 .LLSDATT8027-.LLSDATTD8027
.LLSDATTD8027:
	.byte	0x1
	.uleb128 .LLSDACSE8027-.LLSDACSB8027
.LLSDACSB8027:
	.uleb128 .LEHB24-.LFB8027
	.uleb128 .LEHE24-.LEHB24
	.uleb128 .L361-.LFB8027
	.uleb128 0x1
	.uleb128 .LEHB25-.LFB8027
	.uleb128 .LEHE25-.LEHB25
	.uleb128 .L362-.LFB8027
	.uleb128 0
	.uleb128 .LEHB26-.LFB8027
	.uleb128 .LEHE26-.LEHB26
	.uleb128 0
	.uleb128 0
.LLSDACSE8027:
	.byte	0x1
	.byte	0
	.align 4
	.long	0

.LLSDATT8027:
	.section	.text._ZNSt8_Rb_treeINSt7__cxx1112basic_stringIcSt11char_traitsIcESaIcEEESt4pairIKS5_PFvvEESt10_Select1stISA_ESt4lessIS5_ESaISA_EE17_M_construct_nodeIJRKSA_EEEvPSt13_Rb_tree_nodeISA_EDpOT_,"axG",@progbits,_ZNSt8_Rb_treeINSt7__cxx1112basic_stringIcSt11char_traitsIcESaIcEEESt4pairIKS5_PFvvEESt10_Select1stISA_ESt4lessIS5_ESaISA_EE17_M_construct_nodeIJRKSA_EEEvPSt13_Rb_tree_nodeISA_EDpOT_,comdat
	.size	_ZNSt8_Rb_treeINSt7__cxx1112basic_stringIcSt11char_traitsIcESaIcEEESt4pairIKS5_PFvvEESt10_Select1stISA_ESt4lessIS5_ESaISA_EE17_M_construct_nodeIJRKSA_EEEvPSt13_Rb_tree_nodeISA_EDpOT_, .-_ZNSt8_Rb_treeINSt7__cxx1112basic_stringIcSt11char_traitsIcESaIcEEESt4pairIKS5_PFvvEESt10_Select1stISA_ESt4lessIS5_ESaISA_EE17_M_construct_nodeIJRKSA_EEEvPSt13_Rb_tree_nodeISA_EDpOT_
	.section	.text._ZSt8__fill_aIPhhEvT_S1_RKT0_,"axG",@progbits,_ZSt8__fill_aIPhhEvT_S1_RKT0_,comdat
	.weak	_ZSt8__fill_aIPhhEvT_S1_RKT0_
	.type	_ZSt8__fill_aIPhhEvT_S1_RKT0_, @function
_ZSt8__fill_aIPhhEvT_S1_RKT0_:
.LFB8028:
	.cfi_startproc
	endbr64
	push	rbp
	.cfi_def_cfa_offset 16
	.cfi_offset 6, -16
	mov	rbp, rsp
	.cfi_def_cfa_register 6
	sub	rsp, 32
	mov	QWORD PTR -8[rbp], rdi
	mov	QWORD PTR -16[rbp], rsi
	mov	QWORD PTR -24[rbp], rdx
	mov	rdx, QWORD PTR -24[rbp]
	mov	rcx, QWORD PTR -16[rbp]
	mov	rax, QWORD PTR -8[rbp]
	mov	rsi, rcx
	mov	rdi, rax
	call	_ZSt9__fill_a1IhEN9__gnu_cxx11__enable_ifIXsrSt9__is_byteIT_E7__valueEvE6__typeEPS3_S7_RKS3_
	nop
	leave
	.cfi_def_cfa 7, 8
	ret
	.cfi_endproc
.LFE8028:
	.size	_ZSt8__fill_aIPhhEvT_S1_RKT0_, .-_ZSt8__fill_aIPhhEvT_S1_RKT0_
	.section	.text._ZN9__gnu_cxx16__aligned_membufISt4pairIKNSt7__cxx1112basic_stringIcSt11char_traitsIcESaIcEEEPFvvEEE7_M_addrEv,"axG",@progbits,_ZN9__gnu_cxx16__aligned_membufISt4pairIKNSt7__cxx1112basic_stringIcSt11char_traitsIcESaIcEEEPFvvEEE7_M_addrEv,comdat
	.align 2
	.weak	_ZN9__gnu_cxx16__aligned_membufISt4pairIKNSt7__cxx1112basic_stringIcSt11char_traitsIcESaIcEEEPFvvEEE7_M_addrEv
	.type	_ZN9__gnu_cxx16__aligned_membufISt4pairIKNSt7__cxx1112basic_stringIcSt11char_traitsIcESaIcEEEPFvvEEE7_M_addrEv, @function
_ZN9__gnu_cxx16__aligned_membufISt4pairIKNSt7__cxx1112basic_stringIcSt11char_traitsIcESaIcEEEPFvvEEE7_M_addrEv:
.LFB8029:
	.cfi_startproc
	endbr64
	push	rbp
	.cfi_def_cfa_offset 16
	.cfi_offset 6, -16
	mov	rbp, rsp
	.cfi_def_cfa_register 6
	mov	QWORD PTR -8[rbp], rdi
	mov	rax, QWORD PTR -8[rbp]
	pop	rbp
	.cfi_def_cfa 7, 8
	ret
	.cfi_endproc
.LFE8029:
	.size	_ZN9__gnu_cxx16__aligned_membufISt4pairIKNSt7__cxx1112basic_stringIcSt11char_traitsIcESaIcEEEPFvvEEE7_M_addrEv, .-_ZN9__gnu_cxx16__aligned_membufISt4pairIKNSt7__cxx1112basic_stringIcSt11char_traitsIcESaIcEEEPFvvEEE7_M_addrEv
	.section	.text._ZNK9__gnu_cxx16__aligned_membufISt4pairIKNSt7__cxx1112basic_stringIcSt11char_traitsIcESaIcEEEPFvvEEE6_M_ptrEv,"axG",@progbits,_ZNK9__gnu_cxx16__aligned_membufISt4pairIKNSt7__cxx1112basic_stringIcSt11char_traitsIcESaIcEEEPFvvEEE6_M_ptrEv,comdat
	.align 2
	.weak	_ZNK9__gnu_cxx16__aligned_membufISt4pairIKNSt7__cxx1112basic_stringIcSt11char_traitsIcESaIcEEEPFvvEEE6_M_ptrEv
	.type	_ZNK9__gnu_cxx16__aligned_membufISt4pairIKNSt7__cxx1112basic_stringIcSt11char_traitsIcESaIcEEEPFvvEEE6_M_ptrEv, @function
_ZNK9__gnu_cxx16__aligned_membufISt4pairIKNSt7__cxx1112basic_stringIcSt11char_traitsIcESaIcEEEPFvvEEE6_M_ptrEv:
.LFB8030:
	.cfi_startproc
	endbr64
	push	rbp
	.cfi_def_cfa_offset 16
	.cfi_offset 6, -16
	mov	rbp, rsp
	.cfi_def_cfa_register 6
	sub	rsp, 16
	mov	QWORD PTR -8[rbp], rdi
	mov	rax, QWORD PTR -8[rbp]
	mov	rdi, rax
	call	_ZNK9__gnu_cxx16__aligned_membufISt4pairIKNSt7__cxx1112basic_stringIcSt11char_traitsIcESaIcEEEPFvvEEE7_M_addrEv
	leave
	.cfi_def_cfa 7, 8
	ret
	.cfi_endproc
.LFE8030:
	.size	_ZNK9__gnu_cxx16__aligned_membufISt4pairIKNSt7__cxx1112basic_stringIcSt11char_traitsIcESaIcEEEPFvvEEE6_M_ptrEv, .-_ZNK9__gnu_cxx16__aligned_membufISt4pairIKNSt7__cxx1112basic_stringIcSt11char_traitsIcESaIcEEEPFvvEEE6_M_ptrEv
	.section	.text._ZNSt16allocator_traitsISaISt13_Rb_tree_nodeISt4pairIKNSt7__cxx1112basic_stringIcSt11char_traitsIcESaIcEEEPFvvEEEEE8allocateERSD_m,"axG",@progbits,_ZNSt16allocator_traitsISaISt13_Rb_tree_nodeISt4pairIKNSt7__cxx1112basic_stringIcSt11char_traitsIcESaIcEEEPFvvEEEEE8allocateERSD_m,comdat
	.weak	_ZNSt16allocator_traitsISaISt13_Rb_tree_nodeISt4pairIKNSt7__cxx1112basic_stringIcSt11char_traitsIcESaIcEEEPFvvEEEEE8allocateERSD_m
	.type	_ZNSt16allocator_traitsISaISt13_Rb_tree_nodeISt4pairIKNSt7__cxx1112basic_stringIcSt11char_traitsIcESaIcEEEPFvvEEEEE8allocateERSD_m, @function
_ZNSt16allocator_traitsISaISt13_Rb_tree_nodeISt4pairIKNSt7__cxx1112basic_stringIcSt11char_traitsIcESaIcEEEPFvvEEEEE8allocateERSD_m:
.LFB8032:
	.cfi_startproc
	endbr64
	push	rbp
	.cfi_def_cfa_offset 16
	.cfi_offset 6, -16
	mov	rbp, rsp
	.cfi_def_cfa_register 6
	sub	rsp, 16
	mov	QWORD PTR -8[rbp], rdi
	mov	QWORD PTR -16[rbp], rsi
	mov	rcx, QWORD PTR -16[rbp]
	mov	rax, QWORD PTR -8[rbp]
	mov	edx, 0
	mov	rsi, rcx
	mov	rdi, rax
	call	_ZNSt15__new_allocatorISt13_Rb_tree_nodeISt4pairIKNSt7__cxx1112basic_stringIcSt11char_traitsIcESaIcEEEPFvvEEEE8allocateEmPKv
	leave
	.cfi_def_cfa 7, 8
	ret
	.cfi_endproc
.LFE8032:
	.size	_ZNSt16allocator_traitsISaISt13_Rb_tree_nodeISt4pairIKNSt7__cxx1112basic_stringIcSt11char_traitsIcESaIcEEEPFvvEEEEE8allocateERSD_m, .-_ZNSt16allocator_traitsISaISt13_Rb_tree_nodeISt4pairIKNSt7__cxx1112basic_stringIcSt11char_traitsIcESaIcEEEPFvvEEEEE8allocateERSD_m
	.section	.text._ZNSt16allocator_traitsISaISt13_Rb_tree_nodeISt4pairIKNSt7__cxx1112basic_stringIcSt11char_traitsIcESaIcEEEPFvvEEEEE9constructISB_JRKSB_EEEvRSD_PT_DpOT0_,"axG",@progbits,_ZNSt16allocator_traitsISaISt13_Rb_tree_nodeISt4pairIKNSt7__cxx1112basic_stringIcSt11char_traitsIcESaIcEEEPFvvEEEEE9constructISB_JRKSB_EEEvRSD_PT_DpOT0_,comdat
	.weak	_ZNSt16allocator_traitsISaISt13_Rb_tree_nodeISt4pairIKNSt7__cxx1112basic_stringIcSt11char_traitsIcESaIcEEEPFvvEEEEE9constructISB_JRKSB_EEEvRSD_PT_DpOT0_
	.type	_ZNSt16allocator_traitsISaISt13_Rb_tree_nodeISt4pairIKNSt7__cxx1112basic_stringIcSt11char_traitsIcESaIcEEEPFvvEEEEE9constructISB_JRKSB_EEEvRSD_PT_DpOT0_, @function
_ZNSt16allocator_traitsISaISt13_Rb_tree_nodeISt4pairIKNSt7__cxx1112basic_stringIcSt11char_traitsIcESaIcEEEPFvvEEEEE9constructISB_JRKSB_EEEvRSD_PT_DpOT0_:
.LFB8033:
	.cfi_startproc
	endbr64
	push	rbp
	.cfi_def_cfa_offset 16
	.cfi_offset 6, -16
	mov	rbp, rsp
	.cfi_def_cfa_register 6
	sub	rsp, 32
	mov	QWORD PTR -8[rbp], rdi
	mov	QWORD PTR -16[rbp], rsi
	mov	QWORD PTR -24[rbp], rdx
	mov	rax, QWORD PTR -24[rbp]
	mov	rdi, rax
	call	_ZSt7forwardIRKSt4pairIKNSt7__cxx1112basic_stringIcSt11char_traitsIcESaIcEEEPFvvEEEOT_RNSt16remove_referenceISD_E4typeE
	mov	rdx, rax
	mov	rcx, QWORD PTR -16[rbp]
	mov	rax, QWORD PTR -8[rbp]
	mov	rsi, rcx
	mov	rdi, rax
	call	_ZNSt15__new_allocatorISt13_Rb_tree_nodeISt4pairIKNSt7__cxx1112basic_stringIcSt11char_traitsIcESaIcEEEPFvvEEEE9constructISB_JRKSB_EEEvPT_DpOT0_
	nop
	leave
	.cfi_def_cfa 7, 8
	ret
	.cfi_endproc
.LFE8033:
	.size	_ZNSt16allocator_traitsISaISt13_Rb_tree_nodeISt4pairIKNSt7__cxx1112basic_stringIcSt11char_traitsIcESaIcEEEPFvvEEEEE9constructISB_JRKSB_EEEvRSD_PT_DpOT0_, .-_ZNSt16allocator_traitsISaISt13_Rb_tree_nodeISt4pairIKNSt7__cxx1112basic_stringIcSt11char_traitsIcESaIcEEEPFvvEEEEE9constructISB_JRKSB_EEEvRSD_PT_DpOT0_
	.section	.text._ZSt9__fill_a1IhEN9__gnu_cxx11__enable_ifIXsrSt9__is_byteIT_E7__valueEvE6__typeEPS3_S7_RKS3_,"axG",@progbits,_ZSt9__fill_a1IhEN9__gnu_cxx11__enable_ifIXsrSt9__is_byteIT_E7__valueEvE6__typeEPS3_S7_RKS3_,comdat
	.weak	_ZSt9__fill_a1IhEN9__gnu_cxx11__enable_ifIXsrSt9__is_byteIT_E7__valueEvE6__typeEPS3_S7_RKS3_
	.type	_ZSt9__fill_a1IhEN9__gnu_cxx11__enable_ifIXsrSt9__is_byteIT_E7__valueEvE6__typeEPS3_S7_RKS3_, @function
_ZSt9__fill_a1IhEN9__gnu_cxx11__enable_ifIXsrSt9__is_byteIT_E7__valueEvE6__typeEPS3_S7_RKS3_:
.LFB8034:
	.cfi_startproc
	endbr64
	push	rbp
	.cfi_def_cfa_offset 16
	.cfi_offset 6, -16
	mov	rbp, rsp
	.cfi_def_cfa_register 6
	sub	rsp, 48
	mov	QWORD PTR -24[rbp], rdi
	mov	QWORD PTR -32[rbp], rsi
	mov	QWORD PTR -40[rbp], rdx
	mov	rax, QWORD PTR -40[rbp]
	movzx	eax, BYTE PTR [rax]
	mov	BYTE PTR -9[rbp], al
	mov	rax, QWORD PTR -32[rbp]
	sub	rax, QWORD PTR -24[rbp]
	mov	QWORD PTR -8[rbp], rax
	cmp	QWORD PTR -8[rbp], 0
	je	.L374
	movzx	ecx, BYTE PTR -9[rbp]
	mov	rdx, QWORD PTR -8[rbp]
	mov	rax, QWORD PTR -24[rbp]
	mov	esi, ecx
	mov	rdi, rax
	call	memset@PLT
.L374:
	nop
	leave
	.cfi_def_cfa 7, 8
	ret
	.cfi_endproc
.LFE8034:
	.size	_ZSt9__fill_a1IhEN9__gnu_cxx11__enable_ifIXsrSt9__is_byteIT_E7__valueEvE6__typeEPS3_S7_RKS3_, .-_ZSt9__fill_a1IhEN9__gnu_cxx11__enable_ifIXsrSt9__is_byteIT_E7__valueEvE6__typeEPS3_S7_RKS3_
	.section	.text._ZNK9__gnu_cxx16__aligned_membufISt4pairIKNSt7__cxx1112basic_stringIcSt11char_traitsIcESaIcEEEPFvvEEE7_M_addrEv,"axG",@progbits,_ZNK9__gnu_cxx16__aligned_membufISt4pairIKNSt7__cxx1112basic_stringIcSt11char_traitsIcESaIcEEEPFvvEEE7_M_addrEv,comdat
	.align 2
	.weak	_ZNK9__gnu_cxx16__aligned_membufISt4pairIKNSt7__cxx1112basic_stringIcSt11char_traitsIcESaIcEEEPFvvEEE7_M_addrEv
	.type	_ZNK9__gnu_cxx16__aligned_membufISt4pairIKNSt7__cxx1112basic_stringIcSt11char_traitsIcESaIcEEEPFvvEEE7_M_addrEv, @function
_ZNK9__gnu_cxx16__aligned_membufISt4pairIKNSt7__cxx1112basic_stringIcSt11char_traitsIcESaIcEEEPFvvEEE7_M_addrEv:
.LFB8035:
	.cfi_startproc
	endbr64
	push	rbp
	.cfi_def_cfa_offset 16
	.cfi_offset 6, -16
	mov	rbp, rsp
	.cfi_def_cfa_register 6
	mov	QWORD PTR -8[rbp], rdi
	mov	rax, QWORD PTR -8[rbp]
	pop	rbp
	.cfi_def_cfa 7, 8
	ret
	.cfi_endproc
.LFE8035:
	.size	_ZNK9__gnu_cxx16__aligned_membufISt4pairIKNSt7__cxx1112basic_stringIcSt11char_traitsIcESaIcEEEPFvvEEE7_M_addrEv, .-_ZNK9__gnu_cxx16__aligned_membufISt4pairIKNSt7__cxx1112basic_stringIcSt11char_traitsIcESaIcEEEPFvvEEE7_M_addrEv
	.section	.text._ZNSt15__new_allocatorISt13_Rb_tree_nodeISt4pairIKNSt7__cxx1112basic_stringIcSt11char_traitsIcESaIcEEEPFvvEEEE8allocateEmPKv,"axG",@progbits,_ZNSt15__new_allocatorISt13_Rb_tree_nodeISt4pairIKNSt7__cxx1112basic_stringIcSt11char_traitsIcESaIcEEEPFvvEEEE8allocateEmPKv,comdat
	.align 2
	.weak	_ZNSt15__new_allocatorISt13_Rb_tree_nodeISt4pairIKNSt7__cxx1112basic_stringIcSt11char_traitsIcESaIcEEEPFvvEEEE8allocateEmPKv
	.type	_ZNSt15__new_allocatorISt13_Rb_tree_nodeISt4pairIKNSt7__cxx1112basic_stringIcSt11char_traitsIcESaIcEEEPFvvEEEE8allocateEmPKv, @function
_ZNSt15__new_allocatorISt13_Rb_tree_nodeISt4pairIKNSt7__cxx1112basic_stringIcSt11char_traitsIcESaIcEEEPFvvEEEE8allocateEmPKv:
.LFB8036:
	.cfi_startproc
	endbr64
	push	rbp
	.cfi_def_cfa_offset 16
	.cfi_offset 6, -16
	mov	rbp, rsp
	.cfi_def_cfa_register 6
	sub	rsp, 32
	mov	QWORD PTR -8[rbp], rdi
	mov	QWORD PTR -16[rbp], rsi
	mov	QWORD PTR -24[rbp], rdx
	mov	rax, QWORD PTR -8[rbp]
	mov	rdi, rax
	call	_ZNKSt15__new_allocatorISt13_Rb_tree_nodeISt4pairIKNSt7__cxx1112basic_stringIcSt11char_traitsIcESaIcEEEPFvvEEEE11_M_max_sizeEv
	cmp	rax, QWORD PTR -16[rbp]
	setb	al
	movzx	eax, al
	test	rax, rax
	setne	al
	test	al, al
	je	.L378
	movabs	rax, 256204778801521550
	cmp	rax, QWORD PTR -16[rbp]
	jnb	.L379
	call	_ZSt28__throw_bad_array_new_lengthv@PLT
.L379:
	call	_ZSt17__throw_bad_allocv@PLT
.L378:
	mov	rdx, QWORD PTR -16[rbp]
	mov	rax, rdx
	sal	rax, 3
	add	rax, rdx
	sal	rax, 3
	mov	rdi, rax
	call	_Znwm@PLT
	nop
	leave
	.cfi_def_cfa 7, 8
	ret
	.cfi_endproc
.LFE8036:
	.size	_ZNSt15__new_allocatorISt13_Rb_tree_nodeISt4pairIKNSt7__cxx1112basic_stringIcSt11char_traitsIcESaIcEEEPFvvEEEE8allocateEmPKv, .-_ZNSt15__new_allocatorISt13_Rb_tree_nodeISt4pairIKNSt7__cxx1112basic_stringIcSt11char_traitsIcESaIcEEEPFvvEEEE8allocateEmPKv
	.section	.text._ZNSt4pairIKNSt7__cxx1112basic_stringIcSt11char_traitsIcESaIcEEEPFvvEEC2ERKS9_,"axG",@progbits,_ZNSt4pairIKNSt7__cxx1112basic_stringIcSt11char_traitsIcESaIcEEEPFvvEEC5ERKS9_,comdat
	.align 2
	.weak	_ZNSt4pairIKNSt7__cxx1112basic_stringIcSt11char_traitsIcESaIcEEEPFvvEEC2ERKS9_
	.type	_ZNSt4pairIKNSt7__cxx1112basic_stringIcSt11char_traitsIcESaIcEEEPFvvEEC2ERKS9_, @function
_ZNSt4pairIKNSt7__cxx1112basic_stringIcSt11char_traitsIcESaIcEEEPFvvEEC2ERKS9_:
.LFB8039:
	.cfi_startproc
	endbr64
	push	rbp
	.cfi_def_cfa_offset 16
	.cfi_offset 6, -16
	mov	rbp, rsp
	.cfi_def_cfa_register 6
	sub	rsp, 16
	mov	QWORD PTR -8[rbp], rdi
	mov	QWORD PTR -16[rbp], rsi
	mov	rax, QWORD PTR -8[rbp]
	mov	rdx, QWORD PTR -16[rbp]
	mov	rsi, rdx
	mov	rdi, rax
	call	_ZNSt7__cxx1112basic_stringIcSt11char_traitsIcESaIcEEC1ERKS4_@PLT
	mov	rax, QWORD PTR -16[rbp]
	mov	rdx, QWORD PTR 32[rax]
	mov	rax, QWORD PTR -8[rbp]
	mov	QWORD PTR 32[rax], rdx
	nop
	leave
	.cfi_def_cfa 7, 8
	ret
	.cfi_endproc
.LFE8039:
	.size	_ZNSt4pairIKNSt7__cxx1112basic_stringIcSt11char_traitsIcESaIcEEEPFvvEEC2ERKS9_, .-_ZNSt4pairIKNSt7__cxx1112basic_stringIcSt11char_traitsIcESaIcEEEPFvvEEC2ERKS9_
	.weak	_ZNSt4pairIKNSt7__cxx1112basic_stringIcSt11char_traitsIcESaIcEEEPFvvEEC1ERKS9_
	.set	_ZNSt4pairIKNSt7__cxx1112basic_stringIcSt11char_traitsIcESaIcEEEPFvvEEC1ERKS9_,_ZNSt4pairIKNSt7__cxx1112basic_stringIcSt11char_traitsIcESaIcEEEPFvvEEC2ERKS9_
	.section	.text._ZNSt15__new_allocatorISt13_Rb_tree_nodeISt4pairIKNSt7__cxx1112basic_stringIcSt11char_traitsIcESaIcEEEPFvvEEEE9constructISB_JRKSB_EEEvPT_DpOT0_,"axG",@progbits,_ZNSt15__new_allocatorISt13_Rb_tree_nodeISt4pairIKNSt7__cxx1112basic_stringIcSt11char_traitsIcESaIcEEEPFvvEEEE9constructISB_JRKSB_EEEvPT_DpOT0_,comdat
	.align 2
	.weak	_ZNSt15__new_allocatorISt13_Rb_tree_nodeISt4pairIKNSt7__cxx1112basic_stringIcSt11char_traitsIcESaIcEEEPFvvEEEE9constructISB_JRKSB_EEEvPT_DpOT0_
	.type	_ZNSt15__new_allocatorISt13_Rb_tree_nodeISt4pairIKNSt7__cxx1112basic_stringIcSt11char_traitsIcESaIcEEEPFvvEEEE9constructISB_JRKSB_EEEvPT_DpOT0_, @function
_ZNSt15__new_allocatorISt13_Rb_tree_nodeISt4pairIKNSt7__cxx1112basic_stringIcSt11char_traitsIcESaIcEEEPFvvEEEE9constructISB_JRKSB_EEEvPT_DpOT0_:
.LFB8037:
	.cfi_startproc
	.cfi_personality 0x9b,DW.ref.__gxx_personality_v0
	.cfi_lsda 0x1b,.LLSDA8037
	endbr64
	push	rbp
	.cfi_def_cfa_offset 16
	.cfi_offset 6, -16
	mov	rbp, rsp
	.cfi_def_cfa_register 6
	push	r14
	push	r13
	push	r12
	push	rbx
	sub	rsp, 32
	.cfi_offset 14, -24
	.cfi_offset 13, -32
	.cfi_offset 12, -40
	.cfi_offset 3, -48
	mov	QWORD PTR -40[rbp], rdi
	mov	QWORD PTR -48[rbp], rsi
	mov	QWORD PTR -56[rbp], rdx
	mov	rbx, QWORD PTR -48[rbp]
	mov	rsi, rbx
	mov	edi, 40
	call	_ZnwmPv
	mov	r12, rax
	mov	r14d, 1
	mov	rax, QWORD PTR -56[rbp]
	mov	rdi, rax
	call	_ZSt7forwardIRKSt4pairIKNSt7__cxx1112basic_stringIcSt11char_traitsIcESaIcEEEPFvvEEEOT_RNSt16remove_referenceISD_E4typeE
	mov	rsi, rax
	mov	rdi, r12
.LEHB27:
	call	_ZNSt4pairIKNSt7__cxx1112basic_stringIcSt11char_traitsIcESaIcEEEPFvvEEC1ERKS9_
.LEHE27:
	jmp	.L386
.L385:
	endbr64
	mov	r13, rax
	test	r14b, r14b
	je	.L384
	mov	rsi, rbx
	mov	rdi, r12
	call	_ZdlPvS_
.L384:
	mov	rax, r13
	mov	rdi, rax
.LEHB28:
	call	_Unwind_Resume@PLT
.LEHE28:
.L386:
	add	rsp, 32
	pop	rbx
	pop	r12
	pop	r13
	pop	r14
	pop	rbp
	.cfi_def_cfa 7, 8
	ret
	.cfi_endproc
.LFE8037:
	.section	.gcc_except_table
.LLSDA8037:
	.byte	0xff
	.byte	0xff
	.byte	0x1
	.uleb128 .LLSDACSE8037-.LLSDACSB8037
.LLSDACSB8037:
	.uleb128 .LEHB27-.LFB8037
	.uleb128 .LEHE27-.LEHB27
	.uleb128 .L385-.LFB8037
	.uleb128 0
	.uleb128 .LEHB28-.LFB8037
	.uleb128 .LEHE28-.LEHB28
	.uleb128 0
	.uleb128 0
.LLSDACSE8037:
	.section	.text._ZNSt15__new_allocatorISt13_Rb_tree_nodeISt4pairIKNSt7__cxx1112basic_stringIcSt11char_traitsIcESaIcEEEPFvvEEEE9constructISB_JRKSB_EEEvPT_DpOT0_,"axG",@progbits,_ZNSt15__new_allocatorISt13_Rb_tree_nodeISt4pairIKNSt7__cxx1112basic_stringIcSt11char_traitsIcESaIcEEEPFvvEEEE9constructISB_JRKSB_EEEvPT_DpOT0_,comdat
	.size	_ZNSt15__new_allocatorISt13_Rb_tree_nodeISt4pairIKNSt7__cxx1112basic_stringIcSt11char_traitsIcESaIcEEEPFvvEEEE9constructISB_JRKSB_EEEvPT_DpOT0_, .-_ZNSt15__new_allocatorISt13_Rb_tree_nodeISt4pairIKNSt7__cxx1112basic_stringIcSt11char_traitsIcESaIcEEEPFvvEEEE9constructISB_JRKSB_EEEvPT_DpOT0_
	.section	.text._ZNKSt15__new_allocatorISt13_Rb_tree_nodeISt4pairIKNSt7__cxx1112basic_stringIcSt11char_traitsIcESaIcEEEPFvvEEEE11_M_max_sizeEv,"axG",@progbits,_ZNKSt15__new_allocatorISt13_Rb_tree_nodeISt4pairIKNSt7__cxx1112basic_stringIcSt11char_traitsIcESaIcEEEPFvvEEEE11_M_max_sizeEv,comdat
	.align 2
	.weak	_ZNKSt15__new_allocatorISt13_Rb_tree_nodeISt4pairIKNSt7__cxx1112basic_stringIcSt11char_traitsIcESaIcEEEPFvvEEEE11_M_max_sizeEv
	.type	_ZNKSt15__new_allocatorISt13_Rb_tree_nodeISt4pairIKNSt7__cxx1112basic_stringIcSt11char_traitsIcESaIcEEEPFvvEEEE11_M_max_sizeEv, @function
_ZNKSt15__new_allocatorISt13_Rb_tree_nodeISt4pairIKNSt7__cxx1112basic_stringIcSt11char_traitsIcESaIcEEEPFvvEEEE11_M_max_sizeEv:
.LFB8041:
	.cfi_startproc
	endbr64
	push	rbp
	.cfi_def_cfa_offset 16
	.cfi_offset 6, -16
	mov	rbp, rsp
	.cfi_def_cfa_register 6
	mov	QWORD PTR -8[rbp], rdi
	movabs	rax, 128102389400760775
	pop	rbp
	.cfi_def_cfa 7, 8
	ret
	.cfi_endproc
.LFE8041:
	.size	_ZNKSt15__new_allocatorISt13_Rb_tree_nodeISt4pairIKNSt7__cxx1112basic_stringIcSt11char_traitsIcESaIcEEEPFvvEEEE11_M_max_sizeEv, .-_ZNKSt15__new_allocatorISt13_Rb_tree_nodeISt4pairIKNSt7__cxx1112basic_stringIcSt11char_traitsIcESaIcEEEPFvvEEEE11_M_max_sizeEv
	.section	.text._ZNSt3mapINSt7__cxx1112basic_stringIcSt11char_traitsIcESaIcEEEPFvvESt4lessIS5_ESaISt4pairIKS5_S7_EEED2Ev,"axG",@progbits,_ZNSt3mapINSt7__cxx1112basic_stringIcSt11char_traitsIcESaIcEEEPFvvESt4lessIS5_ESaISt4pairIKS5_S7_EEED5Ev,comdat
	.align 2
	.weak	_ZNSt3mapINSt7__cxx1112basic_stringIcSt11char_traitsIcESaIcEEEPFvvESt4lessIS5_ESaISt4pairIKS5_S7_EEED2Ev
	.type	_ZNSt3mapINSt7__cxx1112basic_stringIcSt11char_traitsIcESaIcEEEPFvvESt4lessIS5_ESaISt4pairIKS5_S7_EEED2Ev, @function
_ZNSt3mapINSt7__cxx1112basic_stringIcSt11char_traitsIcESaIcEEEPFvvESt4lessIS5_ESaISt4pairIKS5_S7_EEED2Ev:
.LFB8050:
	.cfi_startproc
	endbr64
	push	rbp
	.cfi_def_cfa_offset 16
	.cfi_offset 6, -16
	mov	rbp, rsp
	.cfi_def_cfa_register 6
	sub	rsp, 16
	mov	QWORD PTR -8[rbp], rdi
	mov	rax, QWORD PTR -8[rbp]
	mov	rdi, rax
	call	_ZNSt8_Rb_treeINSt7__cxx1112basic_stringIcSt11char_traitsIcESaIcEEESt4pairIKS5_PFvvEESt10_Select1stISA_ESt4lessIS5_ESaISA_EED1Ev
	nop
	leave
	.cfi_def_cfa 7, 8
	ret
	.cfi_endproc
.LFE8050:
	.size	_ZNSt3mapINSt7__cxx1112basic_stringIcSt11char_traitsIcESaIcEEEPFvvESt4lessIS5_ESaISt4pairIKS5_S7_EEED2Ev, .-_ZNSt3mapINSt7__cxx1112basic_stringIcSt11char_traitsIcESaIcEEEPFvvESt4lessIS5_ESaISt4pairIKS5_S7_EEED2Ev
	.weak	_ZNSt3mapINSt7__cxx1112basic_stringIcSt11char_traitsIcESaIcEEEPFvvESt4lessIS5_ESaISt4pairIKS5_S7_EEED1Ev
	.set	_ZNSt3mapINSt7__cxx1112basic_stringIcSt11char_traitsIcESaIcEEEPFvvESt4lessIS5_ESaISt4pairIKS5_S7_EEED1Ev,_ZNSt3mapINSt7__cxx1112basic_stringIcSt11char_traitsIcESaIcEEEPFvvESt4lessIS5_ESaISt4pairIKS5_S7_EEED2Ev
	.section	.rodata
.LC4:
	.string	"aes"
.LC5:
	.string	"empty"
.LC6:
	.string	"avx2"
	.text
	.type	_Z41__static_initialization_and_destruction_0ii, @function
_Z41__static_initialization_and_destruction_0ii:
.LFB8048:
	.cfi_startproc
	.cfi_personality 0x9b,DW.ref.__gxx_personality_v0
	.cfi_lsda 0x1b,.LLSDA8048
	endbr64
	push	rbp
	.cfi_def_cfa_offset 16
	.cfi_offset 6, -16
	mov	rbp, rsp
	.cfi_def_cfa_register 6
	push	r15
	push	r14
	push	r13
	push	r12
	push	rbx
	sub	rsp, 168
	.cfi_offset 15, -24
	.cfi_offset 14, -32
	.cfi_offset 13, -40
	.cfi_offset 12, -48
	.cfi_offset 3, -56
	mov	DWORD PTR -196[rbp], edi
	mov	DWORD PTR -200[rbp], esi
	mov	rax, QWORD PTR fs:40
	mov	QWORD PTR -56[rbp], rax
	xor	eax, eax
	cmp	DWORD PTR -196[rbp], 1
	jne	.L390
	cmp	DWORD PTR -200[rbp], 65535
	jne	.L390
	lea	r12, -176[rbp]
	mov	r13d, 2
	lea	rax, aesComputation[rip]
	mov	rdx, rax
	lea	rax, .LC4[rip]
	mov	rsi, rax
	mov	rdi, r12
.LEHB29:
	call	_ZNSt4pairIKNSt7__cxx1112basic_stringIcSt11char_traitsIcESaIcEEEPFvvEEC1IRA4_KcRS7_Lb1EEEOT_OT0_
	lea	rbx, 40[r12]
	sub	r13, 1
	lea	rax, emptyComputation[rip]
	mov	rdx, rax
	lea	rax, .LC5[rip]
	mov	rsi, rax
	mov	rdi, rbx
	call	_ZNSt4pairIKNSt7__cxx1112basic_stringIcSt11char_traitsIcESaIcEEEPFvvEEC1IRA6_KcRS7_Lb1EEEOT_OT0_
	lea	rax, 40[rbx]
	sub	r13, 1
	lea	rdx, avx2Computation[rip]
	lea	rcx, .LC6[rip]
	mov	rsi, rcx
	mov	rdi, rax
	call	_ZNSt4pairIKNSt7__cxx1112basic_stringIcSt11char_traitsIcESaIcEEEPFvvEEC1IRA5_KcRS7_Lb1EEEOT_OT0_
.LEHE29:
	mov	r13d, 2
	lea	rax, -176[rbp]
	mov	r14, rax
	mov	r15d, 3
	lea	rax, -177[rbp]
	mov	rdi, rax
	call	_ZNSaISt4pairIKNSt7__cxx1112basic_stringIcSt11char_traitsIcESaIcEEEPFvvEEEC1Ev
	lea	rdx, -177[rbp]
	lea	rax, -178[rbp]
	mov	rsi, r14
	mov	rdi, r15
	mov	rcx, r14
	mov	rbx, r15
	mov	rdi, rbx
	mov	r8, rdx
	mov	rcx, rax
	mov	rdx, rdi
	lea	rax, _Z12benchmarkMapB5cxx11[rip]
	mov	rdi, rax
.LEHB30:
	call	_ZNSt3mapINSt7__cxx1112basic_stringIcSt11char_traitsIcESaIcEEEPFvvESt4lessIS5_ESaISt4pairIKS5_S7_EEEC1ESt16initializer_listISC_ERKS9_RKSD_
.LEHE30:
	lea	rax, -177[rbp]
	mov	rdi, rax
	call	_ZNSaISt4pairIKNSt7__cxx1112basic_stringIcSt11char_traitsIcESaIcEEEPFvvEEED1Ev
	lea	rbx, -176[rbp]
	add	rbx, 120
.L393:
	lea	rax, -176[rbp]
	cmp	rbx, rax
	je	.L392
	sub	rbx, 40
	mov	rdi, rbx
	call	_ZNSt4pairIKNSt7__cxx1112basic_stringIcSt11char_traitsIcESaIcEEEPFvvEED1Ev
	jmp	.L393
.L392:
	lea	rax, __dso_handle[rip]
	mov	rdx, rax
	lea	rax, _Z12benchmarkMapB5cxx11[rip]
	mov	rsi, rax
	lea	rax, _ZNSt3mapINSt7__cxx1112basic_stringIcSt11char_traitsIcESaIcEEEPFvvESt4lessIS5_ESaISt4pairIKS5_S7_EEED1Ev[rip]
	mov	rdi, rax
	call	__cxa_atexit@PLT
	jmp	.L390
.L402:
	endbr64
	mov	rbx, rax
	lea	rax, -177[rbp]
	mov	rdi, rax
	call	_ZNSaISt4pairIKNSt7__cxx1112basic_stringIcSt11char_traitsIcESaIcEEEPFvvEEED1Ev
	mov	r14, rbx
	lea	rbx, -176[rbp]
	add	rbx, 120
.L396:
	lea	rax, -176[rbp]
	cmp	rbx, rax
	je	.L397
	sub	rbx, 40
	mov	rdi, rbx
	call	_ZNSt4pairIKNSt7__cxx1112basic_stringIcSt11char_traitsIcESaIcEEEPFvvEED1Ev
	jmp	.L396
.L401:
	endbr64
	mov	r14, rax
.L397:
	test	r12, r12
	je	.L398
	mov	eax, 2
	sub	rax, r13
	mov	rdx, rax
	mov	rax, rdx
	sal	rax, 2
	add	rax, rdx
	sal	rax, 3
	lea	rbx, [r12+rax]
.L399:
	cmp	rbx, r12
	je	.L398
	sub	rbx, 40
	mov	rdi, rbx
	call	_ZNSt4pairIKNSt7__cxx1112basic_stringIcSt11char_traitsIcESaIcEEEPFvvEED1Ev
	jmp	.L399
.L398:
	mov	rax, r14
	mov	rdi, rax
.LEHB31:
	call	_Unwind_Resume@PLT
.LEHE31:
.L390:
	mov	rax, QWORD PTR -56[rbp]
	sub	rax, QWORD PTR fs:40
	je	.L400
	call	__stack_chk_fail@PLT
.L400:
	add	rsp, 168
	pop	rbx
	pop	r12
	pop	r13
	pop	r14
	pop	r15
	pop	rbp
	.cfi_def_cfa 7, 8
	ret
	.cfi_endproc
.LFE8048:
	.section	.gcc_except_table
.LLSDA8048:
	.byte	0xff
	.byte	0xff
	.byte	0x1
	.uleb128 .LLSDACSE8048-.LLSDACSB8048
.LLSDACSB8048:
	.uleb128 .LEHB29-.LFB8048
	.uleb128 .LEHE29-.LEHB29
	.uleb128 .L401-.LFB8048
	.uleb128 0
	.uleb128 .LEHB30-.LFB8048
	.uleb128 .LEHE30-.LEHB30
	.uleb128 .L402-.LFB8048
	.uleb128 0
	.uleb128 .LEHB31-.LFB8048
	.uleb128 .LEHE31-.LEHB31
	.uleb128 0
	.uleb128 0
.LLSDACSE8048:
	.text
	.size	_Z41__static_initialization_and_destruction_0ii, .-_Z41__static_initialization_and_destruction_0ii
	.type	_GLOBAL__sub_I__Z18aes128_encrypt_cbcRKNSt7__cxx1112basic_stringIcSt11char_traitsIcESaIcEEEPKc, @function
_GLOBAL__sub_I__Z18aes128_encrypt_cbcRKNSt7__cxx1112basic_stringIcSt11char_traitsIcESaIcEEEPKc:
.LFB8052:
	.cfi_startproc
	endbr64
	push	rbp
	.cfi_def_cfa_offset 16
	.cfi_offset 6, -16
	mov	rbp, rsp
	.cfi_def_cfa_register 6
	mov	esi, 65535
	mov	edi, 1
	call	_Z41__static_initialization_and_destruction_0ii
	pop	rbp
	.cfi_def_cfa 7, 8
	ret
	.cfi_endproc
.LFE8052:
	.size	_GLOBAL__sub_I__Z18aes128_encrypt_cbcRKNSt7__cxx1112basic_stringIcSt11char_traitsIcESaIcEEEPKc, .-_GLOBAL__sub_I__Z18aes128_encrypt_cbcRKNSt7__cxx1112basic_stringIcSt11char_traitsIcESaIcEEEPKc
	.section	.init_array,"aw"
	.align 8
	.quad	_GLOBAL__sub_I__Z18aes128_encrypt_cbcRKNSt7__cxx1112basic_stringIcSt11char_traitsIcESaIcEEEPKc
	.hidden	DW.ref.__gxx_personality_v0
	.weak	DW.ref.__gxx_personality_v0
	.section	.data.rel.local.DW.ref.__gxx_personality_v0,"awG",@progbits,DW.ref.__gxx_personality_v0,comdat
	.align 8
	.type	DW.ref.__gxx_personality_v0, @object
	.size	DW.ref.__gxx_personality_v0, 8
DW.ref.__gxx_personality_v0:
	.quad	__gxx_personality_v0
	.hidden	__dso_handle
	.ident	"GCC: (Ubuntu 12.3.0-1ubuntu1~23.04) 12.3.0"
	.section	.note.GNU-stack,"",@progbits
	.section	.note.gnu.property,"a"
	.align 8
	.long	1f - 0f
	.long	4f - 1f
	.long	5
0:
	.string	"GNU"
1:
	.align 8
	.long	0xc0000002
	.long	3f - 2f
2:
	.long	0x3
3:
	.align 8
4:
